(dp1
S'Microsoft | Windows | 3.X | general purpose'
p2
(lp3
S'Microsoft Windows 3.1 with Trumpet Winsock 2.0 revision B'
p4
aS'Microsoft Windows for Workgroups 3.11 / TCP/IP-32 3.11b stack or Windows 98'
p5
asS'Intel | embedded || switch'
p6
(lp7
S'Intel Express 510T switch'
p8
aS'Intel NetStructure 470T Switch'
p9
asS'Ringdale | embedded || print server'
p10
(lp11
S'Ringdale RP21 Print Server'
p12
asS'Cabletron | embedded || switch'
p13
(lp14
S'Cabletron SmartSwitch'
p15
aS'Cabletron switch'
p16
asS'NCR | BSD-misc || general purpose'
p17
(lp18
S'NCR MP-RAS 3.0.x'
p19
aS'NCR MP-RAS 3.01'
p20
aS'NCR S26 server (i386) running NCR MP-RAS SVR4 UNIX System'
p21
aS'NCR server running MP-RAS SVR4 UNIX System Version 3'
p22
asS'Microsoft | embedded || game console'
p23
(lp24
S'Microsoft Xbox (modified)'
p25
aS'Microsoft Xbox (modified) running evolutionX'
p26
aS'Microsoft Xbox (modified) running UnleashX 0.26'
p27
asS'Foundry | IronWare || load balancer'
p28
(lp29
S'Foundry FastIronII 4000 load balancer running 06.6.34T43'
p30
aS'Foundry NetIron load balancer OS Ver. 7.1.23T13'
p31
aS'Foundry Networks, Inc. Router/Load balancer, IronWare Version 06.5.12T43'
p32
aS'Foundry ServerIron XL load balancing IP Switch Version 06.0.00T12'
p33
asS'Linux | Linux | 1.X | general purpose'
p34
(lp35
S'Linux 1.0.9'
p36
aS'Linux 1.2.13'
p37
aS'Linux 1.2.8 - 1.2.13'
p38
aS'Linux 1.3.20 (x86)'
p39
asS'Ericsson | embedded || broadband router'
p40
(lp41
S'Ericsson Congo router'
p42
aS'Ericsson HM220dp ADSL modem/router'
p43
asS'Allied Telesyn | embedded || switch'
p44
(lp45
S'Allied Telesyn AT-3726 Ethernet Switch: 2.1cycleA'
p46
aS'Allied Telesyn AT-8748XL or Rapier 24i Switch'
p47
aS'Allied Telesyn AT-RP24i switch or Ericcson HiS V2.0'
p48
asS'Arescom | embedded || broadband router'
p49
(lp50
S'Arescom 800 series dsl router'
p51
aS'Arescom NetDSL 1000NDS series ADSL router'
p52
asS'Cray | Unisys || general purpose'
p53
(lp54
S'Cray Unisys LX/NX MCP 46.1/HMP 5.0 on LX5120'
p55
asS'Symantec | Windows | NT/2K/XP | firewall'
p56
(lp57
S'Symantec Enterprise Firewall 7.0 running on Windows 2000 SP2'
p58
asS'HP | embedded || printer'
p59
(lp60
S'HP Deskjet 6127 printer or InkJet 1200 printer server'
p61
aS'HP JetDirect Card in a LaserJet printer'
p62
aS'HP LaserJet 2420 or 4250 printer'
p63
aS'HP LaserJet 4000N Printer'
p64
aS'HP LaserJet 4100N printer'
p65
aS'HP LaserJet 5'
p66
aS'HP LaserJet printer/print server'
p67
aS'HP printer w/Jet Direct'
p68
aS'HP printer w/JetDirect card'
p69
aS'HP printer w/JetDirect J2556b card (firmware A.05.32)'
p70
aS'HP printer w/JetDirect J2556b card firmware A.05.32'
p71
asS'Planet | embedded || WAP'
p72
(lp73
S'Planet WAP 1950 Wireless Access Point'
p74
asS'GNet | embedded || broadband router'
p75
(lp76
S'GNet BB0040 or SAR 703 DSL modem + router'
p77
asS'Linux | Linux | 2.5.X | general purpose'
p78
(lp79
S'Linux 2.4.0 - 2.5.20'
p80
aS'Linux 2.4.0 - 2.5.20 w/o tcp_timestamps'
p81
aS'Linux 2.4.7 - 2.6.11'
p82
aS'Linux 2.5.25 - 2.6.8 or Gentoo 1.2 Linux 2.4.19 rc1-rc7'
p83
asS'Microsoft | Windows || general purpose'
p84
(lp85
S'Microsoft Windows 2000 Professional SP4'
p86
aS'Microsoft Windows 2000 Professional with SP4 and latest Windows Update patches as of August 11, 2004'
p87
aS'Microsoft Windows 2000 Server SP3'
p88
aS'Microsoft Windows Longhorn eval build 4051'
p89
asS'Cisco | embedded || VoIP adapter'
p90
(lp91
S'Cisco ATA 186 POTS<->VoIP phone gateway device'
p92
aS'Cisco VoIP Phone 7905/7912 or ATA 186 Analog Telephone Adapter'
p93
asS'Netgear | embedded || print server'
p94
(lp95
S'Netgear PS101 Print Server'
p96
aS'Netgear PS110 Print Server'
p97
asS'Cyberguard | embedded || firewall'
p98
(lp99
S'Cyberguard 4.0 firewall'
p100
aS'Cyberguard Firewall 5.2'
p101
asS'Netopia | embedded || broadband router'
p102
(lp103
S'Cisco Catalyst 1900 switch, Bay networks 350-450 switch,  or Netopia DSL/ISDN router'
p104
aS'Broadband Router (Farralon Netopia or Compatible Systems 900i)'
p105
aS'Netopia 4541/R7100 DSL router'
p106
aS'Netopia Cayman 3341-ENT ADSL Router'
p107
aS'Netopia DSL router'
p108
aS'Netopia DSL Router'
p109
aS'Netopia R5300 Router'
p110
aS'Netopia R9100 DSL Router'
p111
asS'Talaris | embedded || printer'
p112
(lp113
S'Talaris 1794 Printstation'
p114
asS'Ricoh | embedded || printer'
p115
(lp116
S'Ricoh Aficio AP4500 Network Laser Printer'
p117
aS'Savin 9927 Copier or Ricoh Aficio 270 copier'
p118
asS'Raptor | Solaris | 2.X | firewall'
p119
(lp120
S'Raptor Firewall 6 on Solaris 2.6'
p121
asS'HP | HP-UX | 9.X | general purpose'
p122
(lp123
S'HP-UX 9.01 - 9.07'
p124
aS'HP-UX A.09.00 E 9000/817 - A.09.07 A 9000/777'
p125
asS'Sony | Linux || specialized'
p126
(lp127
S'Sony PlayStation 2 Performance Analyser'
p128
asS'Ascend | Embedded/OS || router'
p129
(lp130
S'Ascend GRF Router running Ascend Embedded/OS 2.1'
p131
asS'Avocent | embedded || specialized'
p132
(lp133
S'Avocent net KVM switch'
p134
aS'NetBSD 1.6.2 - 2.0_BETA or Avocent Switchview net KVM switch'
p135
asS'MultiTech | embedded || firewall'
p136
(lp137
S'MultiTech standalone firewall box, version 3'
p138
asS'FreeSCO | Linux | 2.0.X | router'
p139
(lp140
S'FreeSCO 0.27 (Linux 2.0.38)'
p141
asS'Commodore | embedded || game console'
p142
(lp143
S'Commodore 64 with TFE Ethernet Card (Contiki)'
p144
aS'Commodore 64 with TFE Ethernet Card (uIP TCP/IP stack)'
p145
asS'ZoomAir | embedded || WAP'
p146
(lp147
S'ZoomAir IG-4165 Wireless gateway (WAP)'
p148
asS'Checkpoint | Solaris | 8 | firewall'
p149
(lp150
S'Checkpoint Firewall-1 NG on Sun Solaris 8'
p151
asS'Spirent | embedded || specialized'
p152
(lp153
S'Spirent AX4000 Network Testing Tool'
p154
asS'Treck | Treck || general purpose'
p155
(lp156
S'Treck TCP/IP stack v2.1'
p157
asS'Adtran | embedded || telecom-misc'
p158
(lp159
S'Adtran Atlas 890 digital cross-connect device'
p160
asS'FreeBSD | FreeBSD | 4.x | general purpose'
p161
(lp162
S'DragonFly 1.1-Stable (FreeBSD-4 fork)'
p163
asS'Apple | embedded || WAP'
p164
(lp165
S'Apple Airport Extreme Base Station (WAP) or ARRIS Cadant C3 CMTS Cable Modem'
p166
aS'Embedded device (Apple WAP, Dell bridge, OKI printer, Westel Broadband router)'
p167
asS'Lucent | BSD-misc || general purpose'
p168
(lp169
S'ATT UNIX SVR4.2 on a Lucent Definity voicemail system'
p170
asS'Avaya | embedded || PBX'
p171
(lp172
S'Avaya G3 PBX version 8.3'
p173
aS'Avaya IP Office 403 PBX'
p174
asS'Netgear | embedded || WAP'
p175
(lp176
S'WAP: Compaq iPAQ Connection Point or Netgear MR814'
p177
asS'IBM | VM/CMS || general purpose'
p178
(lp179
S'IBM VM/CMS (mainframe)'
p180
aS'IBM VM/ESA 2.2.0 CMS Mainframe System'
p181
asS'Alteon | embedded || switch'
p182
(lp183
S'Alteon AceSwitch 110 or Cantillion C100 ATM Switch'
p184
aS'Alteon ACEswitch 184 V. 8.0.49'
p185
asS'Apple | Newton OS || PDA'
p186
(lp187
S'Apple Newton MessagePad 2100, Newton OS 2.1'
p188
asS'3Com | embedded || PBX'
p189
(lp190
S'3Com NBX PBX'
p191
asS'Blue Coat | embedded || web proxy'
p192
(lp193
S'Blue Coat Security Proxy Appliance'
p194
asS'Motorola | BSD-misc || general purpose'
p195
(lp196
S'Motorola BSR 1000R'
p197
aS'Motorola System V/68 version R3V7 on a 68030'
p198
asS'AXIS | embedded || webcam'
p199
(lp200
S'AXIS Stack -- CD-ROM server or print server or camera server'
p201
aS'AXIS 200+ Web Camera running OS v1.42'
p202
aS'AXIS 2120 network camera'
p203
aS'AXIS Neteye 200+ Webcam running software version 1.42'
p204
aS'AXIS NetEye Camera Server V1.20'
p205
asS'Linux | Linux | 2.3.X | general purpose'
p206
(lp207
S'Linux 2.3.12'
p208
aS'Linux 2.3.28-33'
p209
aS'Linux 2.3.47 - 2.3.99-pre2 x86'
p210
aS'Linux 2.3.49 x86'
p211
asS'LG GoldStream | embedded || router'
p212
(lp213
S'LG Goldstream LR3001f router, software version 4.0'
p214
aS'LG Goldstream LR3100p router, software version 1.0-1.5'
p215
asS'Cisco | PIX | 4.X | firewall'
p216
(lp217
S'Cisco PIX 4.2(2) Internal Interface'
p218
aS'Cisco PIX 515 firewall running software 4.4(5)'
p219
aS'Cisco PIX Firewall running PIX 4.1(5)'
p220
aS'Cisco Pix Firewall running PIX 4.1.6'
p221
aS'Cisco PIX v4.2 Firewall'
p222
asS'Cisco | embedded || terminal server'
p223
(lp224
S'Cisco AS5200 terminal server'
p225
asS'FlowPoint | embedded || broadband router'
p226
(lp227
S'DSL Router: FlowPoint 144/22XX v3.0.8 or SpeedStream 5851 v4.0.5.1'
p228
aS'FlowPoint/2000 - 2200 SDSL Router (v1.2.3 - 3.0.4) or ASCOM Timeplex Access Router'
p229
asS'Siemens | embedded || PBX'
p230
(lp231
S'Siemens HICOM 300 Phone switch (PBX)'
p232
aS'Siemens HICOM Phone switch (PBX)'
p233
aS'Siemens HiPATH3500 VoIP PBX'
p234
asS'FiberLine | embedded || WAP'
p235
(lp236
S'FiberLine WL-1200R1 (also known as InterEpoch IWE-1200A-1) Wireless Broadband Router (WAP)'
p237
asS'F5 Labs | BSDI || load balancer'
p238
(lp239
S'F5 Labs Big/IP HA TCP/IP Load Balancer (BSDI kernel/x86)'
p240
asS'Minolta | embedded || printer'
p241
(lp242
S'Konica-Minolta Di3010 photocopier/printer/scanner'
p243
aS'Minolta Di183 printer/copier'
p244
asS'Sequent | embedded || general purpose'
p245
(lp246
S'Sequent DYNIX/ptx V4.2.1'
p247
aS'Sequent DYNIX/ptx V4.4.6'
p248
asS'Thales | embedded || encryption accelerator'
p249
(lp250
S'Thales WebSentry HSM Crypto Accelerator'
p251
asS'Atari | Atari || game console'
p252
(lp253
S'MiNT with MiNTnet 1.03 running on Atari TT'
p254
asS'Apple | Mac OS X | 10.4.X | general purpose'
p255
(lp256
S'Apple Mac OS X 10.3.8 or 10.4'
p257
aS'Apple Mac OS X 10.4.0 - 10.4.4 (Tiger)'
p258
asS'KA9Q | KA9Q || specialized'
p259
(lp260
S'KA9Q amateur radio OS'
p261
asS'Symbol | embedded || WAP'
p262
(lp263
S'Symbol/Spectrum24 Wireless AP'
p264
asS'Infortrend | embedded || storage-misc'
p265
(lp266
S'Infortrend EonStor A16U-G1410'
p267
asS'Cray | UNICOS | 8.X | general purpose'
p268
(lp269
S'Cray UNICOS/mk 8.6'
p270
asS'Tainet | embedded || broadband router'
p271
(lp272
S'Tainet WANpro 2000i Broadband router'
p273
asS'DEC | BSD-misc || general purpose'
p274
(lp275
S'4.3BSD-tahoe on a MicroVax III'
p276
asS'IBM | embedded || switch'
p277
(lp278
S'IBM LAN RouteSwitch/Xylan OmniSwitch Version 3.2.5/NeXT'
p279
asS'Linux | Linux | 2.6.X | general purpose'
p280
(lp281
S'Linux 2.6.15'
p282
asS'2Wire | embedded || WAP'
p283
(lp284
S'2Wire Home Portal 100 residential gateway, v.3.1.0'
p285
asS'Radionics | embedded || specialized'
p286
(lp287
S'Lantronix CoBox serial device server or Radionics RAM IV Alarm'
p288
asS'HP | VxWorks || switch'
p289
(lp290
S'VxWorks 5.3.x bases system (usually an Ethernet hub or switch such as HP ProCurve) or Bay Networks MicroAnnex XL terminal server'
p291
asS'Cisco | embedded || bridge'
p292
(lp293
S'Cisco Accesspoint 1200'
p294
aS'Cisco AIR-WGB340 V8.38 Wireless workgroup bridge 340'
p295
aS'Cisco WGB350 Wireless WorkGroup Bridge'
p296
asS'Cisco | IOS | 12.X | router'
p297
(lp298
S'Cisco IOS 11.3 - 12.0(11)'
p299
aS'Cisco 1601 router running IOS 12.0(8)'
p300
aS'Cisco 1601R router running IOS 12.1(5)'
p301
aS'Cisco 1721 router running IOS 12.3(10)'
p302
aS'Cisco 2514 router running IOS 12.0(21)'
p303
aS'Cisco 2600 router running IOS 12.2(3)'
p304
aS'Cisco 2610 router running IOS 12.2(21a)'
p305
aS'Cisco 2611 router running IOS 12.0(7)T'
p306
aS'Cisco 2611 router running IOS 12.2(7a)'
p307
aS'Cisco 2620 router running IOS 12.2(15)'
p308
aS'Cisco 2620 router running IOS 12.3(5)'
p309
aS'Cisco 2620 running IOS 12.2(19a)'
p310
aS'Cisco 3660 running IOS 12.0(6r)T'
p311
aS'Cisco 3725 router running IOS 12.3(6c)'
p312
aS'Cisco 3745 Router running IOS 12.2(15)T13'
p313
aS'Cisco 4000 Series running IOS 12.0(10.3)'
p314
aS'Cisco 7200 router running IOS 12.1(14)E6'
p315
aS'Cisco 7200 router running IOS 12.4(1a)'
p316
aS'Cisco 7204 router running IOS 12.1(19)'
p317
aS'Cisco 7206 router running IOS 12.2(13)T8'
p318
aS'Cisco 800 Series Broadband Routers running IOS 12.0(7)T'
p319
aS'Cisco 837 router running IOS 12.3(11)T or Cisco 2811 router running IOS 12.3(8r)T7'
p320
aS'Cisco 837 router running IOS 12.3(8)T'
p321
aS'Cisco AS5350 running IOS 12.2(2)XB6'
p322
aS'Cisco IOS 12.0(3.3)S (perhaps a 7200 router)'
p323
aS'Cisco IOS 12.0(5)WC3 - 12.0(16a)'
p324
aS'Cisco IOS 12.0(7)T (on a 1700 router)'
p325
aS'Cisco IOS 12.1(4) on a 2600 router'
p326
aS'Cisco IOS 12.2(8)T5 on a 7507 router'
p327
aS'Cisco router or WAP running IOS 12.2'
p328
aS'Cisco router running IOS 12.0(18)S or 12.0(18)S1'
p329
aS'Cisco router running IOS 12.1'
p330
aS'Cisco router running IOS 12.1(5)-12.2(7a)'
p331
aS'Cisco router running IOS 12.1.5-12.2.13a'
p332
aS'Cisco router running IOS 12.2'
p333
aS'Cisco router running IOS 12.2(8)T'
p334
aS'Cisco router running IOS 12.3(11)'
p335
aS'Cisco router running IOS 12.3(6) - 12.3(11)'
p336
aS'Cisco router running IOS v12.0(15)'
p337
aS'Cisco SOHO 91 secure router running IOS 12.3'
p338
aS'Cisco switch running IOS 12.1(23)E'
p339
aS'router Cisco 3640 running IOS 12.2(23a)'
p340
asS'Bell Labs | Plan9 || general purpose'
p341
(lp342
S'Bell Labs Plan9 Fourth Edition'
p343
aS'Bell Labs Plan9 Fourth Edition (x86)'
p344
aS'Bell Labs Plan9 Second Edition'
p345
asS'FreeBSD | FreeBSD | 4.X | general purpose'
p346
(lp347
S'FreeBSD 2.2.1 - 4.1'
p348
aS'FreeBSD 3.2-4.0'
p349
aS'FreeBSD 4.0-20000208-CURRENT'
p350
aS'FreeBSD 4.1.1 - 4.3 (x86)'
p351
aS'FreeBSD 4.10-STABLE'
p352
aS'FreeBSD 4.2 - 4.3-RC (X86)'
p353
aS'FreeBSD 4.3 - 4.4-RELEASE'
p354
aS'FreeBSD 4.3 - 4.4PRERELEASE'
p355
aS'FreeBSD 4.4 for i386 (IA-32)'
p356
aS'FreeBSD 4.4-5 or Apple Mac OS X 10.0.4 (Darwin V. 1.3-1.3.7 or 4P13)'
p357
aS'FreeBSD 4.4-STABLE'
p358
aS'FreeBSD 4.5-RELEASE (or -STABLE) through 4.6-RC (x86)'
p359
aS'FreeBSD 4.6'
p360
aS'FreeBSD 4.6 through 4.6.2 (July 2002) (x86)'
p361
aS'FreeBSD 4.6-RC on Alpha'
p362
aS'FreeBSD 4.6.2-RELEASE'
p363
aS'FreeBSD 4.6.2-RELEASE - 4.8-RELEASE'
p364
aS'FreeBSD 4.7 - 4.8-RELEASE'
p365
aS'FreeBSD 4.7-RELEASE'
p366
aS'FreeBSD 4.7-RELEASE through 4.8-RELEASE (x86)'
p367
aS'FreeBSD 4.7-RELEASE-p3'
p368
aS'FreeBSD 4.7-STABLE'
p369
aS'FreeBSD 4.8-RELEASE through 4.9-STABLE'
p370
aS'FreeBSD 4.8-STABLE'
p371
aS'FreeBSD 4.8-STABLE - 4.9-PRERELEASE'
p372
aS'FreeBSD 4.9 - 5.1'
p373
aS'FreeBSD 4.9-RELEASE'
p374
aS'FreeBSD 4.9-STABLE'
p375
asS'Microbase | VirtuOS || general purpose'
p376
(lp377
S'Microbase VirtuOS v3.00b R.09'
p378
asS'Westel | embedded || broadband router'
p379
(lp380
g167
asS'Lantronix | embedded || switch'
p381
(lp382
S'Lantronix LSB4 Ethernet Switch'
p383
asS'EMC | DART || fileserver'
p384
(lp385
S'EMC DART running on a Data Mover fileserver. Version T4.1.8.1'
p386
aS'EMC IP4700 Filer'
p387
asS'Cisco | CBOS || broadband router'
p388
(lp389
S'Cisco 675 DSL router -- cbos 2.1'
p390
asS'Cisco | embedded || switch'
p391
(lp392
S'Cisco 1548M managed switch'
p393
ag104
aS'Cisco Catalyst 2820 switch Management Console'
p394
aS'Cisco Catalyst 5500/6500 or Alcatel OmniSwitch/Router'
p395
aS'Cisco Catalyst 6509 switch running IOS Version 12.1(23)E'
p396
aS'Cisco Catalyst switch'
p397
aS'Router/Switch/Printer/Firewall (LanPlex 2500/Cisco Catalyst 5505/Cisco 6509/Trancell Webramp/Xylan OmniSwitch)/Epson Stylus (100BTX-NIC HP Secure Web Console, SonicWall firewall appliance 3.3.1)'
p398
asS'Sega | embedded || game console'
p399
(lp400
S'Sega Dreamcast game console'
p401
asS'Nortel | embedded || terminal server'
p402
(lp403
S'Nortel Networks CVX1800 RAS. Software version 2.02'
p404
asS'Draytek | embedded || broadband router'
p405
(lp406
S'Draytek Vigor 2000 ISDN router'
p407
aS'Draytek Vigor 2200e DSL router v2.1a'
p408
aS'Draytek Vigor 2200e DSL router v2.1b'
p409
asS'Sony | NewsOS || general purpose'
p410
(lp411
S'Sony NewsOS 6.1.2'
p412
asS'FastComm | embedded || specialized'
p413
(lp414
S'FastComm FRAD (Frame Relay Access Device) F9200-DS-DNI -- Ver. 4.2.3A'
p415
asS'Radware | embedded || security-misc'
p416
(lp417
S'Radware Content Inspection Director v2.10.03'
p418
asS'AXIS | embedded || fileserver'
p419
(lp420
S'AXIS or Meridian Data Network CD-ROM server'
p421
ag201
aS'AXIS StorPoint CD E100 CD-ROM Server'
p422
aS'AXIS StorPoint CD E100 CD-ROM Server V5.20'
p423
aS'AXIS StorPoint CD E100 CD-ROM Server V5.38'
p424
asS'Microsoft | Windows | PocketPC/CE | PDA'
p425
(lp426
S'Microsoft Windows 95/98/NT 4.0 or PocketPC'
p427
aS'HP Jornada running Microsoft Windows CE 2.11 (Handheld/PC Pro 3.0 PDA)'
p428
aS'Microsoft PocketPC 3.0.11171 running on Compaq iPAQ 3870 Pocket PC'
p429
asS'3Com | embedded || terminal server'
p430
(lp431
S'3Com SuperStack II RAS remote access server'
p432
aS'3Com terminal server ESPL CS2100'
p433
asS'RoadLanner | embedded || broadband router'
p434
(lp435
S'RoadLanner Broadband router BRL-04FW 6.15.02r Build 0091 L:01'
p436
asS'3Com | embedded || broadband router'
p437
(lp438
S'3Com Home Connect Cable Modem'
p439
aS'3Com OfficeConnect 812 aDSL router'
p440
aS'3Com OfficeConnect Remote 812 aDSL Router'
p441
aS'3Com Sharkfin/Tailfin Cable Modem'
p442
aS'US Robotics USR8000 Broadband router'
p443
aS'Kentrox DataSMART 656 CSU/DSU, USR NETserver/16, or 3Com OfficeConnect ADSL router'
p444
asS'HP | embedded || switch'
p445
(lp446
S'HP Advancestack Etherswitch 224T or 210 or Netgear RP114 DSL-Router w/Switch'
p447
asS'Netburner | embedded || specialized'
p448
(lp449
S'Netburner Model 5282 Embedded Ethernet Microcontroller'
p450
asS'Lucent | ComOS || terminal server'
p451
(lp452
S'Lucent Portmaster 4 running ComOS v4.0.3c2'
p453
asS'Easytel | embedded || broadband router'
p454
(lp455
S'Easytel TeleWell EA-701B ADSL Modem/Router'
p456
asS'HP | BSD-misc || general purpose'
p457
(lp458
S'HP-BSD 2.0'
p459
asS'SGI | IRIX | 4.X | general purpose'
p460
(lp461
S'SGI IRIX 4.0.5F'
p462
asS'DEC | DIGITAL UNIX | 4.X | general purpose'
p463
(lp464
S'DEC DIGITAL UNIX OSF1 V 4.0-4.0F'
p465
aS'DIGITAL UNIX OSF1 V 4.0,4.0B,4.0D,4.0E,4.0F'
p466
asS'Konica | embedded || printer'
p467
(lp468
S'Konica-Minolta magicolor2300DL printer controller'
p469
aS'Pitney Bowes photocopier, Konica printer/fax/scanner, or Toshiba E-Studio16 printer'
p470
asS'Packet Engines | embedded || router'
p471
(lp472
S'Packet Engines PowerRail 5200 router version 2.6.0r10 - 16 Sep, 1999'
p473
asS'US Robotics | embedded || WAP'
p474
(lp475
S'D-Link DI-804HV VPN Router or US-Robotics 8022 WAP or DI-714P+ Wireless router'
p476
aS'US Robotics Broadband router (model #8000-02)'
p477
aS'US Robotics USR8022 Broadband Wireless router (WAP)'
p478
asS'Cyclades | Cyros || terminal server'
p479
(lp480
S'Cyclades PathRAS Remote Access Server v1.1.8 - 1.3.12'
p481
asS'StackTools | StackTos || general purpose'
p482
(lp483
S'StackTools StackTos 1.0 embedded networking OS'
p484
aS'StackTos 2.1'
p485
asS'MultiTech | embedded || telecom-misc'
p486
(lp487
S'MultiTech MultiVoIP Version 2.01A Firmware'
p488
asS'Contiki | Contiki || specialized'
p489
(lp490
S'Contiki 1.2-devel0 embedded OS on Ethernut card or uIP 0.9 TCP/IP stack'
p491
asS'Nexland | embedded || broadband router'
p492
(lp493
S'Nexland ISB Pro800 Turbo Cable/DSL router'
p494
asS'Fore | embedded || switch'
p495
(lp496
S'Fore ForeThought 7.1.0 ATM switch'
p497
aS'Fore ForeThought 8.3.0.N ATM BX200 switch'
p498
asS'Trancell | embedded || router'
p499
(lp500
g398
asS'Aironet | embedded || WAP'
p501
(lp502
S'Aironet AP4800E v8.07 - Aironet (Cisco?) 11 Mbps Wireless access point'
p503
asS'Minolta | VxWorks || printer'
p504
(lp505
S'Minolta QMS Printer running VxWorks 5.4.2'
p506
asS'Apple | embedded || printer'
p507
(lp508
S'Apple Color LaserWriter 12/660 PS (Model No. M3036)'
p509
aS'Apple Color LaserWriter 600 Printer'
p510
aS'Apple LaserWriter 12/640 PS'
p511
aS'Apple LaserWriter 16/600 PS, HP 6P, or HP 5 Printer'
p512
aS'Apple LaserWriter 8500 (PostScript version 3010.103)'
p513
asS'Proteon | OpenRoute || router'
p514
(lp515
S'Proteon OpenRoute 2.1 on a RBX200 Router or IBM 2210 Router'
p516
aS'Proteon OpenRoute 3.0 gt series router'
p517
asS'NetBSD | NetBSD || general purpose'
p518
(lp519
S'NetBSD 1.0 big endian arch'
p520
aS'NetBSD 1.0 i386'
p521
aS'NetBSD 1.0 little endian arch'
p522
aS'NetBSD 1.1 - 1.2.1 litle endian arch'
p523
aS'NetBSD 1.2 - 1.2.1 big endian arch'
p524
aS'NetBSD 1.3 - 1.3.3 big endian arch'
p525
aS'NetBSD 1.3 - 1.3.3 little endian arch'
p526
aS'NetBSD 1.3H (after 19980919) or 1.3I (before 19990119) little endian arch'
p527
aS'NetBSD 1.3H-1.5  big endian arch'
p528
aS'NetBSD 1.3I through 1.6'
p529
aS'NetBSD 1.5.2 running on a Commodore Amiga (68040 processor)'
p530
aS'NetBSD 1.5_ALPHA i386'
p531
aS'NetBSD 1.6'
p532
aS'NetBSD 1.6 - 1.6.1 (Alpha)'
p533
aS'NetBSD 1.6 BETA 4 i386 (20020630 snapshot)'
p534
aS'NetBSD 1.6.2 (alpha)'
p535
aS'NetBSD 1.6.2 (X86)'
p536
ag135
aS'NetBSD 1.6ZC (SPARC)'
p537
aS'NetBSD 1.6ZD'
p538
aS'NetBSD 1.6ZH or 2.0 - 2.0.2'
p539
aS'NetBSD 2.0'
p540
aS'NetBSD/Alpha 1.5.2 on a DEC 000/300 LX'
p541
asS'XCD | embedded || print server'
p542
(lp543
S'XCD Xconnect Print Server, firmware version CC8S-3.58 (98.09.21)'
p544
asS'Panasonic | embedded || broadband router'
p545
(lp546
S'Panasonic IP Technology Broadband Networking Gateway, KX-HGW200'
p547
asS'RCA | embedded || broadband router'
p548
(lp549
S'Cisco 1538M HUB running Cisco 1538M EES (1.00.00) or Assured Access Technology ISAS Switch Release-2.3.0 or Thomson Multimedia RCA DCM245 Cable Modem'
p550
aS'RCA/Thomson cable modem DCM-235/245'
p551
asS'Neoware | NetOS || X terminal'
p552
(lp553
S'Cisco 11151/Arrowpoint 150 load balancer, Neoware (was HDS) NetOS V. 2.0.1 or HP Entria C3230A'
p554
asS'Symantec | Solaris | 8 | firewall'
p555
(lp556
S'Symantec Enterprise Firewall v7.0.4 (on Solaris 8)'
p557
asS'BSDI | BSD/OS | 3.X | general purpose'
p558
(lp559
S'BSDI BSD/OS 3.0-3.1 (or possibly Mac OS, NetBSD)'
p560
asS'Sun | Solaris | 9 | general purpose'
p561
(lp562
S'Sun Solaris 9'
p563
aS'Sun Solaris 9 or 10'
p564
aS'Sun Solaris 9 with TCP_STRONG_ISS set to 2'
p565
asS'Extreme Networks | Extremeware || switch'
p566
(lp567
S'Extreme Networks Alpine 3804 Switch running Extremeware 6.2.1'
p568
aS'Extremeware 6.2.2'
p569
asS'Extreme Networks | embedded || switch'
p570
(lp571
S'Extreme Gigabit switch (unknown version)'
p572
aS'Extreme Networks Black Diamond switch'
p573
asS'Blue Coat | SGOS || web proxy'
p574
(lp575
S'Blue Coat ProxySG (SGOS 3.2.2.1)'
p576
aS'Blue Coat Secure Gateway'
p577
aS'BlueCoat SG4'
p578
asS'Telos | embedded || media device'
p579
(lp580
S'Telos Zephyr Xstream v2.71p ISDN/POTS/Ethernet audio transceiver'
p581
asS'Global Technology Associates | embedded || firewall'
p582
(lp583
S'Gnat Box Light firewall v3.0.3 (from the inside interface)'
p584
asS'IBM | MVS || general purpose'
p585
(lp586
S'IBM MVS'
p587
aS'IBM MVS TCP/IP stack V. 3.2 or AIX 4.3.2'
p588
aS'IBM MVS TCP/IP TCPMVS 3.2'
p589
aS'IBM MVS TCP/IP TCPOE 3.3'
p590
asS'PCS | embedded || specialized'
p591
(lp592
S'PCS Intus 3100 time management device'
p593
asS'HP | MPE/iX || general purpose'
p594
(lp595
S'HP MPE/iX 5.5'
p596
aS'HP MPE/iX 5.5 on HP 3000'
p597
asS'Bay Networks | embedded || router'
p598
(lp599
S'Bay Networks BLN-2 Network Router or ASN Processor revision 9'
p600
aS'Bay Networks Instant Internet router'
p601
aS'Baystack Instant Internet 400 SoHo Router'
p602
asS'SMC | embedded || WAP'
p603
(lp604
S'Panasonic network camera or SMC WAP'
p605
aS'SMC Barricade DSL Router/Modem/Wireless AP'
p606
aS'SMC Barricade Router, firmware 1.94a'
p607
aS'SMC Barricade Wireless Broadband Router (firmware R1.93e)'
p608
asS'US Robotics | embedded || switch'
p609
(lp610
g444
asS'Billion | embedded || broadband router'
p611
(lp612
S'Billion ADSL router'
p613
aS'Billion BIPAC-741GE V2 aDSL Router'
p614
asS'Allied Telesyn | embedded || hub'
p615
(lp616
S'Allied Telesyn AT-S10 version 3.0 on an AT-TS24TR hub'
p617
asS'Brix Networks | embedded || specialized'
p618
(lp619
S'Brix 1000 Verifier'
p620
asS'Systech | embedded || specialized'
p621
(lp622
S'Systech RCS/3182 Ethernet serial port server (firmware 06D)'
p623
asS'Elsa | embedded || broadband router'
p624
(lp625
S'ELSA LANCOM 1100 office router'
p626
aS'ELSA LANCOM DSL I-10 Office router'
p627
aS'ELSA LANCOM DSL I-10 Office router or Wireless L-11'
p628
aS'ELSA LANCOM DSL/10 Office DSL router'
p629
aS'ELSA LANCOM DSL/10 office router'
p630
aS'ELSA LANCOM DSL/I-1611 Office router'
p631
asS'Canon | embedded || printer'
p632
(lp633
S'Canon GP 160 PF printer'
p634
aS'Canon iR 2200 printer'
p635
aS'Canon iR C3200 printer'
p636
aS'Canon iR2270 printer'
p637
aS'Canon iR6000 printer'
p638
aS'Canon iR7200 Printer'
p639
aS'Canon photocopier/fax/scanner/printer GP30F'
p640
aS'Canon Pixmar IP4000R printer'
p641
asS'IPCop | Linux | 2.2.X | firewall'
p642
(lp643
S'IPCop 1.20 Linux 2.2.2X-based firewall'
p644
asS'DEC | embedded || router'
p645
(lp646
S'DECNIS 600 V4.1.3B multiprotocol bridge/router'
p647
asS'Nortel | embedded || switch'
p648
(lp649
S'Nortel Networks BayStack switch'
p650
aS'Nortel Networks Passport 1100 switch'
p651
aS'Nortel Networks Passport 8600 routing switch sw 3.3.0.0'
p652
asS'Rio | embedded || media device'
p653
(lp654
S'Rio Karma mp3 player'
p655
asS'Sharp | embedded || printer'
p656
(lp657
S'Sharp DIGITAL Imager (copier) AR-507'
p658
aS'Sharp Network Printer AR-337'
p659
asS'IBM | embedded || hub'
p660
(lp661
S'Cisco 760 Series ISDN router (non IOS) or IBM Stackable Hub'
p662
aS'IBM 8222 hub'
p663
aS'IBM 8239 Token-Ring Stackable Hub'
p664
asS'IPRoute | DOS || software router'
p665
(lp666
S'IPRoute (DOS based software router)'
p667
asS'Redback | AOS || router'
p668
(lp669
S'Redback SMS 1800 router'
p670
aS'Redback SMS 1800/10000 router or Thomson TMC 390 cable modem'
p671
aS'Redback SMS500 Redback Networks router AOS Release 5.0.3.8 - 5.0.4.0'
p672
asS'ZyXel | ZyNOS || firewall'
p673
(lp674
S'ZyXel ZyWALL 1 firewall'
p675
aS'ZyXel Zywall 10W firewall'
p676
aS'ZyXel ZyWALL 50 (ZyNOS 3.52)'
p677
asS'3Com | embedded || router'
p678
(lp679
S'3Com AccessBuilder Remote Office 500 router'
p680
aS'3Com NetBuilder & NetBuilder II OS v 9.3'
p681
aS'3Com Netbuilder & Netbuilder II router OS v8.1'
p682
aS'3Com Netbuilder II Router Ver 11.4.0.51'
p683
aS'3Com Netbuilder Remote Office 222 (ESPL-310), Version 10.1 (SW/NBRO-AB,10.1)'
p684
aS'3Com Netbuilder Remote Office 222 router'
p685
aS'3Com NetBuilder-II, OS version SW/NB2M-BR-5.1.0.27'
p686
aS'3Com OfficeConnect Netbuilder router'
p687
aS'3com OfficeConnect Remote 812 ADSL Router'
p688
aS'Shiva AccessPort Bridge/Router Software V 2.1.0 or 3Com HiPer Access Router Card hardware V1.0.0 software V4.1.59'
p689
asS'Zebra | embedded || printer'
p690
(lp691
S'Zebra Technologies TLP2844-Z printer'
p692
asS'DEC | OpenVMS | 6.X | general purpose'
p693
(lp694
S'DEC OpenVMS 6.1'
p695
aS'DEC OpenVMS 6.2'
p696
aS'DEC OpenVMS 6.2 - 7.2-1 on VAX or AXP'
p697
aS'DEC OpenVMS 6.2/Alpha'
p698
aS'DEC OpenVMS Alpha 6.2 running DIGITAL TCP/IP Services (UCX) v4.0'
p699
aS'DEC OpenVMS AXP 6.2 running Attachmate Pathway 3.1 TCP stack'
p700
aS'DEC OpenVMS V6.1 on VAX 4000-105A'
p701
asS'ARRIS | embedded || broadband router'
p702
(lp703
g166
asS'Compaq | Tru64 UNIX | 4.X | general purpose'
p704
(lp705
S'Compaq Tru64 UNIX (formerly DIGITAL UNIX) 4.0e'
p706
aS'Compaq Tru64 UNIX 4.0e'
p707
aS'Tru64 UNIX 4.0f - 4.0g'
p708
asS'ZyXel | ZyNOS || broadband router'
p709
(lp710
S'Hardware: ZyXel Prestige Broadband router'
p711
aS'ZyXel 944S Prestige router'
p712
aS'ZyXel P480 ISDN router running ZyNOS v2.42(O.00)'
p713
aS'ZyXel Prestige 642R-11 ASDL router running ZyNOS'
p714
aS'ZyXel Prestige 643 router'
p715
aS'ZyXel Prestige 700/Netgear MR314 Broadband router'
p716
aS'ZyXel Prestige 791R'
p717
aS'ZyXel ZyNOS based Broadband router (ZyNOS) or Intel Express ISDN router'
p718
asS'Palm | PalmOS | 3.X | PDA'
p719
(lp720
S'PalmOS 3.5.1 on m100 PDA'
p721
asS'Efficient Networks | embedded || broadband router'
p722
(lp723
S'Efficient Networks/SpeedStream DSL router'
p724
asS'Shiva | embedded || terminal server'
p725
(lp726
S'Shiva LanRover/8E Version 3.5'
p727
asS'Data General | AOS/VS || general purpose'
p728
(lp729
S'AOS/VS on a Data General mainframe'
p730
aS'AOS/VS or VSII'
p731
asS'Actiontec | embedded || broadband router'
p732
(lp733
S'Actiontec 1520 DSL gateway firmware 8.2.0.16'
p734
asS'D-Link | embedded || print server'
p735
(lp736
S'D-Link Print Server'
p737
asS'AXIS | Linux || webcam'
p738
(lp739
S'AXIS 2100 Network Camera running Linux/CRIS v2.32'
p740
asS'Cisco | IOS | 11.X | terminal server'
p741
(lp742
S'Cisco 2501/5260/5300 terminal server IOS 11.3.6(T1)'
p743
asS'AtheOS | AtheOS || general purpose'
p744
(lp745
S'AtheOS ( www.atheos.cx )'
p746
aS'AtheOS/Syllable 0.4.2'
p747
asS'Liebert | embedded || specialized'
p748
(lp749
S'Liebert Intellislot SNMP/Web Card (power devices, air conditioning, etc.)'
p750
asS'BSDI | BSD/OS | 4.X | general purpose'
p751
(lp752
S'BSDI BSD/OS 4.0-4.0.1'
p753
aS'BSDI BSD/OS 4.0.1'
p754
aS'BSDI BSD/OS 4.2'
p755
asS'Parks | embedded || broadband router'
p756
(lp757
S'Parks Altavia 671R router'
p758
asS'Toshiba | embedded || broadband router'
p759
(lp760
S'Toshiba DOCSIS Cable Modem'
p761
aS'Toshiba TR650 ISDN Router'
p762
asS'IBM | embedded || printer'
p763
(lp764
S'IBM 6400 printer or Microplex Pocket Print Server'
p765
aS'IBM Infoprint 12 Net-Printer'
p766
asS'SCO | UnixWare || general purpose'
p767
(lp768
S'SCO UnixWare 2.01'
p769
aS'SCO UnixWare 2.1'
p770
aS'SCO UnixWare 2.1.2'
p771
aS'SCO UnixWare 7.0.0 or OpenServer 5.0.4-5.0.6'
p772
aS'SCO UnixWare 7.1.0 - 7.1.1 (x86)'
p773
aS'SCO UnixWare 7.1.0 x86'
p774
aS'SCO UnixWare 7.1.1'
p775
asS'Xylogics | LynxOS || terminal server'
p776
(lp777
S'Xylogics Remote Annex 4000 terminal server running LynxOS realtime OS'
p778
asS'IBM | OS/400 | V4 | general purpose'
p779
(lp780
S'IBM AS/400 V3 and V4'
p781
aS'IBM AS/400 running OS/400 R4.4'
p782
aS'IBM OS/400 V4 r4-5'
p783
aS'IBM OS/400 V4R2M0'
p784
aS'IBM OS/400 V4R5'
p785
aS'IBM OS/400 V4R5M0'
p786
asS'Compaq | embedded || WAP'
p787
(lp788
g177
asS'HP | Netstation || X terminal'
p789
(lp790
S'HP Entria X station (running Netstation 7.x)'
p791
asS'Ascend | TAOS || terminal server'
p792
(lp793
S'Ascend / Lucent MAX TNT terminal server'
p794
aS'Ascend Mac 6000 Terminal access server'
p795
aS'Ascend Max terminal server firmware 7.0.4'
p796
aS'Ascend TNT OS +5.0Ap48+'
p797
aS'Ascend/Lucent Max (HP,4000-6000) version 6.1.3 - 7.0.2+'
p798
asS'Enterasys | embedded || switch'
p799
(lp800
S'Enterasys/Cabletron switch running Enterasys E8.2.0.0 - E9.0.0.0'
p801
aS'Nortel CallPilot 100 voicemail system, 3Com Superstack 3 switch, Enterasys switch, HP TopTools remote control card, or Cisco 1538M hub'
p802
aS'SonicWall SOHO firewall, Enterasys Matrix E1, or Accelerated Networks VoDSL, or Cisco 350 Access Point'
p803
asS'MultiTech | embedded || terminal server'
p804
(lp805
S'MultiTech CommPlete (modem server) RAScard'
p806
aS'MultiTech CommPlete Controller (terminal server)'
p807
asS'Panasonic | embedded || printer'
p808
(lp809
S'Panasonic DP-3520 multi-function printer'
p810
aS'Panasonic panafax DX2000 SuperG3 fax machine'
p811
asS'Enterasys | embedded || firewall'
p812
(lp813
S'Enterasys XSR-1805 Security Route'
p814
asS'HP | embedded || remote management'
p815
(lp816
S'HP Integrated Lights Out remote configuration Board'
p817
ag802
asS'Microplex | embedded || print server'
p818
(lp819
g765
aS'Microplex Print Server'
p820
asS'Microsoft | Windows | 2003/.NET | general purpose'
p821
(lp822
S'Microsoft Windows 2003 Server'
p823
aS'Microsoft Windows 2003 Server Enterprise Edition'
p824
aS'Microsoft Windows 2003 Server Enterprise Edition or XP Pro SP2'
p825
aS'Microsoft Windows 2003 Server or XP SP2'
p826
aS'Microsoft Windows 2003 Server SP1'
p827
aS'Microsoft Windows 2003 Server Standard Edition'
p828
aS'Microsoft Windows 2003 Server Standart Edition SP1'
p829
aS'Microsoft Windows 2003 standard edition'
p830
aS'Microsoft Windows Server 2003'
p831
aS'Microsoft Windows Server 2003 Enterprise Edition'
p832
aS'Microsoft Windows 2000 Server SP4 or 2003 Server Standard Edition'
p833
aS'Microsoft Windows 2003 Server, 2003 Server SP1 or XP Pro SP2'
p834
aS'Microsoft Windows XP SP2 or 2003 Server'
p835
asS'Linksys | embedded || print server'
p836
(lp837
S'Linksys EtherFast Print Server'
p838
aS'Linksys PSUS4 USB Print Server and switch'
p839
aS'Linksys WPS54GU2 Wireless Print Server'
p840
asS'Digital Link | embedded || CSUDSU'
p841
(lp842
S'Digital Link DL2001 CSU/DSU Management Access Processor'
p843
asS'D-Link | embedded || telecom-misc'
p844
(lp845
S'D-Link VoIP Gateway GS-104SH'
p846
asS'Kronos | embedded || specialized'
p847
(lp848
S'Kronos Time clock'
p849
asS'IBM | OS/390 | V2 | general purpose'
p850
(lp851
S'IBM OS/390 V2R10'
p852
asS'Nokia | Symbian || phone'
p853
(lp854
S'Symbian OS 6.1 on Nokia N-Gage v 4.03 phone'
p855
asS'Bay Networks | embedded || terminal server'
p856
(lp857
g291
asS'Maxim-IC | TiniOS || general purpose'
p858
(lp859
S'Maxim-IC TiniOS DS80c400'
p860
aS'Maxim/Dallas TINI embedded Java v1.02b'
p861
aS'Maxim/Dallas TINI embedded Java v1.02d'
p862
asS'NetScreen | ScreenOS || firewall'
p863
(lp864
S'Netscreen 5GT Plus running ScreenOS 4.0.0r5.3'
p865
aS'NetScreen NS-204 Firewall'
p866
aS'NetScreen-100'
p867
asS'Alpha Micro | AMOS || general purpose'
p868
(lp869
S'Amos 2.3A'
p870
asS'Netgear | embedded || switch'
p871
(lp872
S'Netgear GS724T Gigabit Smart Switch'
p873
asS'Sun | SunOS || general purpose'
p874
(lp875
S'Sun RSC (Remote System Control card) v1.14 (in Solaris 2.7)'
p876
aS'Sun SunOS 4.0.3'
p877
aS'Sun SunOS 4.1.1 - 4.1.4 (or derivative)'
p878
aS'Sun SunOS 4.1.3_U1 + ISI RFC1323 mods from ISI'
p879
asS'RiverStone | embedded || router'
p880
(lp881
S'RiverStone RS3000 router'
p882
asS'Quantum | embedded || storage-misc'
p883
(lp884
S'Quantum Snap server 4100'
p885
aS'Quantum Snap Server Network Storage Box'
p886
asS'KIRK | embedded || VoIP gateway'
p887
(lp888
S'KIRK Wireless Server 600'
p889
asS'Pace | embedded || media device'
p890
(lp891
S'Pace digital cable TV receiver'
p892
asS'Alteon | embedded || load balancer'
p893
(lp894
S'Alteon Networks ACEswitch 180e Software Version 8.0.62.7'
p895
aS'Nortel/Alteon ACE Director 3 Version 6.0.42-B'
p896
asS'Livingston | ComOS || terminal server'
p897
(lp898
S'ComOS based terminal server - Livingston PortMaster or U.S. Robotics/3Com Total Control'
p899
asS'NCD | embedded || X terminal'
p900
(lp901
S'NCD X server (NCD16 server 2.3.0 03/12/91)'
p902
asS'Xylogics | embedded || terminal server'
p903
(lp904
S'Xylan OmniSwitch 5x/9x Ethernet switch, Xylogics Annex-III Comm server R10.0, or Hitachi HI-UX/WE2'
p905
aS'Xylogics Micro Annex ELS terminal server x7.1.8'
p906
asS'Lantronix | Punix || print server'
p907
(lp908
S'Lantronix EPS1 Print Server version V3.5/1(970325)'
p909
aS'Lantronix EPS1 Printer Server'
p910
aS'Lantronix EPS2 Print Server Version V3.5/2(970721)'
p911
asS'SCO | OpenServer || general purpose'
p912
(lp913
S'SCO OpenServer 5.0.5'
p914
aS'SCO OpenServer 5.0.7'
p915
aS'SCO OpenServer Release 5'
p916
asS'Intel | embedded || router'
p917
(lp918
S'Intel ER8100ST Express Router 8100'
p919
aS'Intel ER9100 Express Router 9100'
p920
asS'Edimax | embedded || broadband router'
p921
(lp922
S'Edimax BR-6004 Broadband router'
p923
asS'Sun | Solaris | 8 | general purpose'
p924
(lp925
S'Sun Solaris 2.6 - 8 (SPARC)'
p926
aS'Sun Solaris 8'
p927
aS'Sun Trusted Solaris 8'
p928
asS'EUSSO | embedded || print server'
p929
(lp930
S'Print server: Zero One Tech 3000, Hawking PN7117, or EUSSO UPS1211-B'
p931
asS'Linux | Linux | 2.1.X | general purpose'
p932
(lp933
S'Linux 2.1.19 - 2.2.25'
p934
aS'Linux 2.1.24 PowerPC'
p935
aS'Linux 2.1.76'
p936
aS'Linux 2.1.88'
p937
aS'Linux 2.1.91 - 2.1.103'
p938
asS'FreeBSD | FreeBSD | 6.X | general purpose'
p939
(lp940
S'FreeBSD 5.2.1-RELEASE or 6.0-CURRENT'
p941
asS'Apple | Mac OS X | 10.3.X | general purpose'
p942
(lp943
S'Apple Mac OS X 10.3.3 (Panther)'
p944
aS'Apple Mac OS X 10.3.5 or 10.3.7'
p945
aS'Apple Mac OS X 10.3.6 or 10.3.7'
p946
aS'Apple Mac OS X 10.3.9'
p947
aS'Apple Mac OS X 10.4.1 (Tiger)'
p948
asS'NeXT | Mach || general purpose'
p949
(lp950
S'NeXT Mach'
p951
asS'Foundry | embedded || load balancer'
p952
(lp953
S'Foundry FastIron Edge Switch (load balancer) 2402'
p954
aS'Foundry Load Balancer OS Ver 7.2.X - 7.3.X'
p955
aS'Foundry Networks Biglron 8000 load balancer'
p956
asS'DEC | DIGITAL UNIX | 1.X | general purpose'
p957
(lp958
S'DEC OSF/1 V1.3A - 2.0'
p959
asS'SAR | embedded || broadband router'
p960
(lp961
g77
asS'Netgear | embedded || broadband router'
p962
(lp963
g447
aS'Netgear DG824M WAP'
p964
aS'Netgear FVL238 vpn/firewall/router'
p965
aS'Netgear FVL328 vpn/firewall/router'
p966
aS'Netgear WGR614 Wireless router'
p967
aS'Netgear Wireless router or Netgear FM114P/REPOTEC IP515H Router & Print Server'
p968
asS'Turtle Beach | embedded || media device'
p969
(lp970
S'Turtle Beach AudioTron 100 network MP3 player or Microsoft Windows 98SE'
p971
aS'Turtle Beach AudioTron network MP3 player'
p972
asS'IPCop | Linux | 2.4.X | firewall'
p973
(lp974
S'IPCop 1.4 - 1.4.6 Linux 2.4.2x-based firewall'
p975
asS'Level One | embedded || broadband router'
p976
(lp977
S'Fingerprint LevelOne WBR-3406TX Wireless Broadband router'
p978
aS'LevelOne WBR-3403TX Wireless Broadband router'
p979
asS'IBM | OS/390 | V5 | general purpose'
p980
(lp981
S'IBM OS/390 V5R0M0'
p982
asS'Brocade | embedded || switch'
p983
(lp984
S'Cisco Aironet WAP, Brocade Fibre Switch, or Sun Remote System Console'
p985
asS'Quanterra | OS/9 || specialized'
p986
(lp987
S'Quanterra seismic data acquisition system running OS/9 V2.4 on 68K'
p988
asS'Nokia | embedded || broadband router'
p989
(lp990
S'Nokia M1122 DSL Router'
p991
asS'D-Link | embedded || hub'
p992
(lp993
S'D-Link Corp. DE-1800 Stackable Hub SNMP/Telnet Agent Software version 2.04B3 boot PROM 2.21'
p994
asS'Cabletron | embedded || router'
p995
(lp996
S'Cabletron Smart Switch Router 8600'
p997
aS'Cabletron Systems SSR 8000 smart switch router System Software, Version 3.1.B.16'
p998
asS'Xylan | embedded || switch'
p999
(lp1000
g398
ag279
ag905
asS'Exabyte | embedded || storage-misc'
p1001
(lp1002
S'Exabyte X80 tape backup robot'
p1003
asS'3Com | embedded || switch'
p1004
(lp1005
S'3Com / USR TotalSwitch Firmware: 02.02.00R'
p1006
aS'3Com 7700/8800 Switch or Huawei S6506R routing switch VRP 3.10'
p1007
aS'3Com Access Builder 4000 Switch'
p1008
aS'3Com LANplex 6004 switch'
p1009
aS'3Com SuperStack II switch (OS v 2.0)'
p1010
aS'3Com SuperStack II switch SW/NBSI-CF,11.1.0.00S38'
p1011
aS'Cisco VPN 3000 or 3Com 4924 GigE Switch'
p1012
ag802
asS'IQinVision | embedded || webcam'
p1013
(lp1014
S'IQinVison IQeye3 webcam'
p1015
asS'DEC | VMS || general purpose'
p1016
(lp1017
S'DEC OpenVMS 7.3-1 w/Multinet 4.4'
p1018
aS'DEC VAX 7000-610 or 4200/SPX OR 6000-430'
p1019
aS'DEC VAX/VMS 5.3 on a MicroVAX II'
p1020
aS'DEC VAX/VMS 5.5-2'
p1021
aS'DEC VAX/VMS v5.5, CMU-TEK TCP/IP stack'
p1022
aS'DEC VMS MultiNet V4.1(16)'
p1023
asS'Radware | embedded || load balancer'
p1024
(lp1025
S'Netopia Cayman 334x router/WAP or Radware Web Server Director load balancer'
p1026
asS'Isolation | embedded || encryption accelerator'
p1027
(lp1028
S'Isolation Systems Infocrypt Enterprise'
p1029
asS'HP | embedded || print server'
p1030
(lp1031
S'HP printer w/JetDirect card'
p1032
ag61
ag67
asS'Sony | Linux || game console'
p1033
(lp1034
S'PS2 Linux 1.0 on Sony PS2 game console'
p1035
asS'IBM | OS/400 | V3 | general purpose'
p1036
(lp1037
g781
aS'IBM OS/400 V3'
p1038
asS'IBM | embedded || X terminal'
p1039
(lp1040
S'AGE Logic, Inc. IBM XStation'
p1041
asS'Xyplex | embedded || terminal server'
p1042
(lp1043
S'Xyplex Network 9000 terminal server'
p1044
aS'Xyplex Terminal Server CSERV-20 software v6.0.4'
p1045
aS'Xyplex Terminal Server v6.0.2S5'
p1046
asS'Linux | Linux | 2.0.X | general purpose'
p1047
(lp1048
S'Linux 2.0.0'
p1049
aS'Linux 2.0.27 - 2.0.30'
p1050
aS'Linux 2.0.32-34'
p1051
aS'Linux 2.0.34-38'
p1052
aS'Linux 2.0.35 (S.u.S.E. Linux 5.3 (i386)'
p1053
aS'Linux 2.0.39'
p1054
asS'xMach | xMach || general purpose'
p1055
(lp1056
S'xMach free distributed OS version 0.1 current'
p1057
asS'MultiTech | embedded || VoIP gateway'
p1058
(lp1059
S'MultiTech MultiVoip 2410'
p1060
asS'Convex | SPP-UX || general purpose'
p1061
(lp1062
S'Convex SPP-UX 5.2.1'
p1063
aS'SPP-UX 5.x on a Convex SPP-1600'
p1064
asS'Apollo | Domain/OS || general purpose'
p1065
(lp1066
S'Apollo Domain/OS SR10.3.5'
p1067
aS'Apollo Domain/OS SR10.4'
p1068
asS'Soyo | embedded || VoIP phone'
p1069
(lp1070
S'Soyo G668 VoIP phone'
p1071
asS'Cisco | vxworks || WAP'
p1072
(lp1073
g985
asS'FreeBSD | FreeBSD | 2.X | general purpose'
p1074
(lp1075
S'FreeBSD 2.1.0 - 2.1.5'
p1076
ag348
aS'FreeBSD 2.2.1-STABLE'
p1077
asS'Intel | embedded || print server'
p1078
(lp1079
S'Intel InBusiness Print Station'
p1080
aS'Intel NetportExpress 10 3-port Print Server'
p1081
aS'Intel NetportExpress 10/100 3-port Print Server'
p1082
aS'Intel NetportExpress PRO Print Server V04.33a'
p1083
aS'Intel NetportExpress XL Print Server'
p1084
asS'Gauntlet | Solaris | 2.5.X | firewall'
p1085
(lp1086
S'Gauntlet 4.0a firewall on Solaris 2.5.1'
p1087
asS'Genius | embedded || print server'
p1088
(lp1089
S'Genius Print Server'
p1090
asS'Compex | embedded || switch'
p1091
(lp1092
S'Compex CGX3224 Switch'
p1093
asS'Alcatel | embedded || broadband router'
p1094
(lp1095
S'Alcatel 1000 ADSL (modem)'
p1096
aS'Alcatel 1000 DSL Router'
p1097
aS'Alcatel Speed Touch *DSL modem/router'
p1098
aS'Alcatel Speed Touch 510 *DSL modem/router'
p1099
aS'Alcatel Speed Touch Pro aDSL modem'
p1100
asS'Tektronix | embedded || printer'
p1101
(lp1102
S'Tektronix Phaser 350 printer'
p1103
aS'Tektronix Phaser 560 printer'
p1104
aS'Tektronix Phaser printer'
p1105
aS'Tektronix/Xerox Phaser printer'
p1106
asS'ZyXel | ZyNOS || switch'
p1107
(lp1108
S'ZyXel switch ES-3024 ZyNOS V3.50'
p1109
asS'Proxim | embedded || bridge'
p1110
(lp1111
S'Proxim Stratum MP Wireless bridge'
p1112
asS'Cyclades | Cyras || terminal server'
p1113
(lp1114
S'Cyclades PathRAS Remote Access Server v1.1.7'
p1115
asS'Hitachi | HI-UX || general purpose'
p1116
(lp1117
S'Hitachi HI-UX/MPP'
p1118
ag905
asS'Juniper | JUNOS || router'
p1119
(lp1120
S'Juniper Networks JUNOS 5.3 on an Olive router'
p1121
aS'Juniper Networks JUNOS 5.6R1.3 routing software on x86 box'
p1122
aS'Juniper Networks router JUNOS 5.5R1.2'
p1123
aS'Juniper Networks router M10i running JUNOS 7.2R1.7'
p1124
aS'Juniper Router running JUNOS'
p1125
asS'Cisco | embedded || web proxy'
p1126
(lp1127
S'Cisco Cache Engine Web Proxy'
p1128
asS'Magna | embedded || router'
p1129
(lp1130
S'Magna SG10 intranet router'
p1131
asS'Arlan | embedded || bridge'
p1132
(lp1133
S'ARLAN BR2000E V5.0E Wireless Radio Bridge'
p1134
asS'Minix | Minix || general purpose'
p1135
(lp1136
S'Minix 32-bit/Intel 2.0.0'
p1137
aS'Minix 32-bit/Intel 2.0.3'
p1138
aS'Minix v2.0.2 32bits'
p1139
asS'Bosch | embedded || webcam'
p1140
(lp1141
S"Bosch Security Systems's Divar Digital Video Recorder Version 2.00"
p1142
asS'Be | BeOS | 5.X | general purpose'
p1143
(lp1144
S'BeOS 5.0.4 (BeOS 5 Pro + BONE 7a)'
p1145
aS'BeOS 5.03 x86 with the BONE network stack'
p1146
aS'BeOS 5.1d0/DANO on x86'
p1147
aS'BeOS R5.03 Personal Edition'
p1148
asS'IBM | AIX | 3.X | general purpose'
p1149
(lp1150
S'IBM AIX 3.2'
p1151
aS'IBM AIX 3.2 running on RS/6000'
p1152
aS'IBM AIX 3.2.3 running on RS6000 model 560'
p1153
aS'IBM AIX 3.2.5 (Bull HardWare)'
p1154
aS'IBM AIX v3.2.5 - 4'
p1155
asS'NeXT | NeXTStep || general purpose'
p1156
(lp1157
S'NeXTStep/OpenStep 4.2/Intel'
p1158
aS'OpenStep 4.0-4.2 or NeXTStep 1.0-3.3 (Intel)'
p1159
aS'OpenStep 4.1/NeXTStep 3.3'
p1160
asS'DEC | DIGITAL UNIX | 3.X | general purpose'
p1161
(lp1162
S'DIGITAL UNIX OSF1 V 3.0,3.2,3.2C'
p1163
asS'Aethra | embedded || webcam'
p1164
(lp1165
S'Aethra Vega Conference System'
p1166
asS'Stratus | VOS || general purpose'
p1167
(lp1168
S'Stratus VOS Release 14.3.1ae'
p1169
asS'Microsoft | Windows | NT/2K/XP | general purpose'
p1170
(lp1171
S'Microsoft XP SP2 (firewall disabled)'
p1172
asS'Tandberg | embedded || X terminal'
p1173
(lp1174
S'Tandberg X-terminal'
p1175
asS'Polycom | embedded || webcam'
p1176
(lp1177
S'Polycom Video Conference node'
p1178
aS'Polycom ViewStation'
p1179
aS'Polycom ViewStation 512K videoconferencing system'
p1180
asS'Scientific-Atlanta | embedded || media device'
p1181
(lp1182
S'Scientific Atlanta Explorer 4200 Digital Cable Box'
p1183
aS'Scientific Atlanta PowerVu Program Receiver Model D9850/9010'
p1184
asS'Handspring | PalmOS | 5.X | PDA'
p1185
(lp1186
S'PalmOS 5.2.1 on Handspring Treo'
p1187
asS'Compaq | Tru64 UNIX | 5.X | general purpose'
p1188
(lp1189
S'Compaq Tru64 UNIX 5.0 or DEC OpenVMS 7.2'
p1190
aS'Compaq Tru64 UNIX V5.1 (Rev. 732)'
p1191
aS'Compaq Tru64 UNIX V5.1A (Rev. 1885)'
p1192
aS'Compaq Tru64 UNIX V5.1B'
p1193
aS'HP Tru64 UNIX v5.1B'
p1194
aS'OSF1 5.0 Rev. 910 (AKA Compaq/DIGITAL Tru64 UNIX)'
p1195
asS'Proxim | embedded || WAP'
p1196
(lp1197
S'Proxim 8571 802.11a Access Point'
p1198
asS'HP | embedded || load balancer'
p1199
(lp1200
S'HP Procurve Routing Switch 9304M'
p1201
aS'HP Procurve Switch 2600 series or 5304XL'
p1202
asS'Raptor | embedded || firewall'
p1203
(lp1204
S'Raptor firewall 5.03 on NT 4'
p1205
asS'Corega | embedded || broadband router'
p1206
(lp1207
S'Corega BAR SW-4P Broadband Access Router'
p1208
asS'Digital Networks | embedded || switch'
p1209
(lp1210
S'Digital Networks VNswitch 900'
p1211
asS'SonicWall | embedded || firewall'
p1212
(lp1213
S'SonicWall Pro 200 firewall'
p1214
asS'WTI | embedded || power-device'
p1215
(lp1216
S'WTI Internet Power Switch 1.01'
p1217
aS'WTI Network Power Switch v3.02'
p1218
asS'Cray | UNICOS | 10.X | general purpose'
p1219
(lp1220
S'UNICOS 10.0.0 on Cray 90'
p1221
asS'PolyCom | embedded || webcam'
p1222
(lp1223
S'PolyCom ViewStation video-conferencing system (firmware v7.2)'
p1224
asS'Phillips | embedded || media device'
p1225
(lp1226
S'Phillips ReplayTV 5000 DVR'
p1227
asS'Telocity | embedded || broadband router'
p1228
(lp1229
S'Telocity (DirectTVDSL) Gateway x2 Model'
p1230
asS'Racal | embedded || encryption accelerator'
p1231
(lp1232
S'Racal 7100 Host Security Module 1.05 / 5.05'
p1233
asS'Rockwell | embedded || telecom-misc'
p1234
(lp1235
S'Rockwell Spectrum 100 POTS switcher release 7.2'
p1236
asS'Sony | Symbian || phone'
p1237
(lp1238
S'Sony Ericsson P800 mobile phone, Symbian OS v7.0'
p1239
asS'Bay Networks | embedded || switch'
p1240
(lp1241
S'Bay Networks BayStack 310T switch'
p1242
aS'BayStack 28115/ADV Fast Ethernet Switch'
p1243
aS'BayStack 450-24T switch'
p1244
ag104
asS'Teltrend | embedded || router'
p1245
(lp1246
S'Teltrend (aka Securicor 3net) Router'
p1247
asS'Galacticomm | WorldGroup || BBS'
p1248
(lp1249
S'Galacticomm WorldGroup BBS (MajorBBS) w/TCP/IP'
p1250
aS'Galacticomm WorldGroup BBS / Vircom TCP/IP stack'
p1251
asS'Gandalf | embedded || router'
p1252
(lp1253
S'Gandalf LanLine Router'
p1254
asS'Intracom | embedded || broadband router'
p1255
(lp1256
S'Intergraph jetSpeed 520 ADSL Router'
p1257
asS'Linux | Linux | 2.2.X | general purpose'
p1258
(lp1259
g934
aS'Linux 2.2.12 - 2.2.25'
p1260
aS'Linux 2.2.13'
p1261
aS'Linux 2.2.13 (SuSE; x86)'
p1262
aS'Linux 2.2.14'
p1263
aS'Linux 2.2.16C37_III on Sun Cobalt'
p1264
aS'Linux 2.2.19'
p1265
aS'Linux 2.2.19 (Alpha)'
p1266
aS'Linux 2.2.19 - 2.2.20'
p1267
aS'Linux 2.2.19 on a DEC Alpha'
p1268
aS'Linux 2.2.20 SMP'
p1269
aS'Linux 2.2.21 SMP (x86)'
p1270
aS'Linux 2.2.22'
p1271
aS'Linux 2.2.5 - 2.2.13 SMP'
p1272
aS'Linux 2.4.4'
p1273
asS'Linksys | embedded || broadband router'
p1274
(lp1275
S'Linksys BEFSR41 Broadband router'
p1276
aS'Linksys BEFSR41 V3 Etherfast cable/DSL router'
p1277
aS'Linksys BEFVP41 VPN Router'
p1278
aS'Linksys BEFW11S4 Wireless DSL/Cable Router'
p1279
aS'Linksys BEFW11S4/WRT-54G Wireless Broadband router or BEFSR41 Cable/DSL router'
p1280
aS'Linksys WAG54G Wireless Broadband Router'
p1281
aS'Linksys WAG54G Wireless Gateway'
p1282
aS'Linksys WRT54G Wireless Broadband Router (Linux kernel 2.4.20)'
p1283
asS'DEC | DIGITAL UNIX | 2.X | general purpose'
p1284
(lp1285
g959
asS'HP | HP-UX | 11.X | general purpose'
p1286
(lp1287
S'Apple Mac OS 9.04 or HP-UX B.11.00'
p1288
aS'Apple Mac OS 9, or HP-UX 11.00'
p1289
aS'HP-UX 11'
p1290
aS'HP-UX 11 w/tcp_isn_passphrase'
p1291
aS'HP-UX 11.00'
p1292
aS'HP-UX 11.11'
p1293
aS'HP-UX B.11.00 A 9000/785'
p1294
aS'HP-UX B.11.00 A 9000/800'
p1295
aS'HP-UX B11.00 U 9000/839'
p1296
asS'Sun | Solaris | 2.X | general purpose'
p1297
(lp1298
S'Sun Solaris 2.3 - 2.4'
p1299
aS'Sun Solaris 2.4 w/most Sun patches (jumbo cluster patch, security patches, etc)'
p1300
aS'Sun Solaris 2.5, 2.5.1'
p1301
aS'Sun Solaris 2.6'
p1302
aS'Sun Solaris 2.6 (SPARC)'
p1303
aS'Sun Solaris 2.6 - 7 with tcp_strong_iss=0'
p1304
aS'Sun Solaris 2.6 - 7 with tcp_strong_iss=2'
p1305
aS'Sun Solaris 2.6 - 7 x86'
p1306
ag926
asS'HP | embedded || X terminal'
p1307
(lp1308
S'HP Entria II X station'
p1309
ag554
asS'Cray | UNICOS || general purpose'
p1310
(lp1311
S'Cray UNICOS 9.0 - 10.0 or UNICOS/mk 1.5.1'
p1312
aS'Cray UNICOS 9.0.1ai - 10.0.0.2'
p1313
asS'GrandStream | embedded || VoIP phone'
p1314
(lp1315
S'Grandstream BT-100 IP Phone'
p1316
aS'GrandStream BT-100 IP Phone'
p1317
aS'Grandstream BT-101 IP phone'
p1318
aS'GrandStream BT-101 IP phone'
p1319
aS'Grandstream BudgeTone 101 IP Phone'
p1320
aS'Grandstream IP Phone'
p1321
aS'GrandStream VoIP Phone (BudgeTone-100)'
p1322
aS'Grandstream VoIP Phone (BudgeTone-101)'
p1323
asS'ACC | embedded || router'
p1324
(lp1325
S'ACC Amazon 9.2.29 or Congo 9.2.35 WAN concentrator'
p1326
asS'Siemens | SINIX || general purpose'
p1327
(lp1328
S'Siemens SINIX-N 5.41C0005'
p1329
aS'Siemens SINIX-N 5.43C3002'
p1330
aS'Siemens SINIX-Y 5.43B0045'
p1331
aS'Siemens SINIX-Y 5.43C4001'
p1332
asS'Cisco | PIX | 5.X | firewall'
p1333
(lp1334
S'Cisco PIX Firewall (PixOS 5.2 - 6.1)'
p1335
aS'Cisco Secure PIX Firewall Version 5.0(2)'
p1336
asS'D-Link | embedded || webcam'
p1337
(lp1338
S'D-Link DCS-1000 webcam with firmware 1.06'
p1339
aS'D-Link dcs-5300w Wireless WebCam'
p1340
aS'D-Link DVC-1000 Wireless Broadband VideoPhone'
p1341
asS'Cisco | CacheOS || web proxy'
p1342
(lp1343
S'Cisco CacheOS (1.1.0)'
p1344
asS'Smoothwall | Linux | 2.2.X | firewall'
p1345
(lp1346
S'Smoothwall Linux-based firewall 2.2.23'
p1347
asS'IBM | embedded || storage-misc'
p1348
(lp1349
S'IBM 3494 Magnetic Tape Library'
p1350
asS'Apple | Mac OS X | 10.2.X | general purpose'
p1351
(lp1352
S'Apple Mac OS X 10.1.5-10.2.8'
p1353
aS'Apple Mac OS X 10.2.6'
p1354
aS'Apple Mac OS X 10.2.6 (Jaguar)'
p1355
aS'Apple Mac OS X 10.2.8 (Jaguar)'
p1356
aS'Apple Mac OS X Server 10.2.8'
p1357
asS'Softek | embedded || specialized'
p1358
(lp1359
S'Softek Digi One serial device server'
p1360
asS'Asante | embedded || hub'
p1361
(lp1362
S'Asante FriendlyNet FR3004 Series Internet Hub'
p1363
aS'AsanteHub 2072 Ethernet hub'
p1364
asS'NetApp | Data ONTAP || fileserver'
p1365
(lp1366
S'NetApp Data ONTAP 3.1.6 or BSDi 1.1'
p1367
aS'NetApp Data ONTAP 5.1.2 - 5.3.5r2'
p1368
aS'NetApp Data ONTAP 6.1.2R3 on an F840 filer'
p1369
aS'NetApp Data ONTAP Release 6.3.1'
p1370
aS'NetApp F360 or F760 Filer'
p1371
aS'NetApp Filer (Data OnTap 6.5.2) or NetCache (NetApp 5.6 - 6.0.1)'
p1372
aS'NetApp ONTAP Release 6.3.3'
p1373
aS'Network Appliance Filer running Data ONTAP Release 6.4.3'
p1374
asS'IronPort | AsyncOS || specialized'
p1375
(lp1376
S'IronPort C60 email security appliance'
p1377
asS'Cisco | PIX | 6.X | firewall'
p1378
(lp1379
g1335
aS'Cisco Firewall (PIX 6.1.4 - 6.2.2)'
p1380
aS'Cisco PIX 501 firewall running PIX 6.1(1)'
p1381
aS'Cisco PIX 515 or 525 Firewall running 6.1(4) - 6.2(1)'
p1382
aS'Cisco PIX Firewall running PIX 6.2 - 6.3.3'
p1383
aS'Cisco PIX Firewall Version 6.1(2)'
p1384
aS'Cisco PIX Firewall Version 6.2(1)'
p1385
aS'Cisco PIX Firewall Version 6.2(2) - 6.3'
p1386
asS'Chase | embedded || terminal server'
p1387
(lp1388
S'Chase IOLan Terminal Server'
p1389
aS'Chase/Perle IOLAN Terminal Server'
p1390
aS'Chase/Perle IOLAN terminal server'
p1391
asS'ZyXel | ZyNOS || WAP'
p1392
(lp1393
S'ZyXel ZyAir B-4000 Wireless Lan Access Point'
p1394
asS'NetSilicon | ThreadX || specialized'
p1395
(lp1396
S'NetSilicon NetARM running ThreadX 2.0'
p1397
asS'HP | embedded || scanner'
p1398
(lp1399
g67
asS'Clipcomm | embedded || VoIP phone'
p1400
(lp1401
S'Clipcomm CP-100 VoIP phone'
p1402
asS'BayTech | embedded || power-device'
p1403
(lp1404
S'BayTech Remote Power Control RPC3-15NC or RPC4'
p1405
asS'Microsoft | Windows | PocketPC/CE | specialized'
p1406
(lp1407
S'Microsoft Windows CE 3.0'
p1408
aS'Microsoft Windows CE or Pocket PC (PDA or other embedded device)'
p1409
asS'Cisco | embedded || router'
p1410
(lp1411
S'Cisco Router C2600 running IOS 12.2(2)T'
p1412
aS'Cisco X.25/TCP/LAT Protocol Translator ver 8.2(4)'
p1413
asS'Cantillion | embedded || switch'
p1414
(lp1415
g184
asS'Wooksung | embedded || telecom-misc'
p1416
(lp1417
S'Wooksung TelePhoSee WVP-2100 teleconference system'
p1418
asS'Alcatel | embedded || telecom-misc'
p1419
(lp1420
S'Alcatel OmniPcx 4400 telephone system'
p1421
asS'APC | embedded || power-device'
p1422
(lp1423
S'APC MasterSwitch Network Power Controller'
p1424
aS'APC Network management Card AP9616'
p1425
aS'APC network-enabled UPS'
p1426
aS'APC UPS Network Management Card'
p1427
aS'APC UPS system'
p1428
aS'APC UPS System network management card (runs AOS v2.5.3)'
p1429
aS'APC UPS System network management card (runs AOS)'
p1430
aS'APC Web/SNMP UPS management card'
p1431
asS'Sony | embedded || robotic pet'
p1432
(lp1433
S'Sony AIBO ERS-7 running AIBO Mind 2'
p1434
asS'Be | BeOS | 4.X | general purpose'
p1435
(lp1436
S'BeOS 4 - 4.5'
p1437
asS'Intel | embedded || firewall'
p1438
(lp1439
S'Intel NetStructure 3110 VPN Gateway'
p1440
asS'Hawking | embedded || print server'
p1441
(lp1442
S'Hawking PS12U Embedded Print Server'
p1443
ag931
asS'BinTec | embedded || broadband router'
p1444
(lp1445
S'BinTEC BIANCA/BRIK-XS Broadband router V. 6.X'
p1446
aS'BinTec BingoDSL/X4000 Router Firmware V. 7.1'
p1447
aS'BinTec XS/XM ISDN access router V. 4.9.1-4.9.3'
p1448
aS'VPN Access 25 version V. 7.1'
p1449
asS'FreeBSD | FreeBSD | 3.X | general purpose'
p1450
(lp1451
g348
ag349
aS'FreeBSD 3.4-RELEASE'
p1452
asS'Apple | Mac OS X | 10.1.X | general purpose'
p1453
(lp1454
S'Apple Mac OS X 10.1 - 10.1.4'
p1455
aS'Apple Mac OS X 10.1.4 (Darwin Kernel 5.4) on iMac'
p1456
aS'Apple Mac OS X 10.1.5'
p1457
ag1353
aS'Apple Mac OS X Server 10.1.2 (ppc)'
p1458
asS'Pitney Bowes | embedded || printer'
p1459
(lp1460
g470
asS'SMC | embedded || broadband router'
p1461
(lp1462
S'SMC Barricade SMC7004VR2.0EU DSL router'
p1463
asS'Dell | embedded || storage-misc'
p1464
(lp1465
g167
aS'Dell Powervault 132T Automated Tape Library'
p1466
aS'Dell Tape Library MSL6030'
p1467
asS'TrueTime | embedded || specialized'
p1468
(lp1469
S'Embedded device: HP Switch, Copper Mountain DSL Concentrator, Compaq Remote Insight Lights-Out remote console card, 3Com NBX 25 phone system or Home Wireless Gateway, or TrueTime NTP clock'
p1470
asS'Siemens | embedded || VoIP phone'
p1471
(lp1472
S'Siemens HiCom 300E business phone system Release 6.5'
p1473
asS'Necomm | embedded || broadband router'
p1474
(lp1475
S'Necomm NB1300 DSL router'
p1476
asS'3Com | ComOS || terminal server'
p1477
(lp1478
g899
asS'Sun | embedded || remote management'
p1479
(lp1480
g985
asS'Alcatel | embedded || switch'
p1481
(lp1482
S'Alcatel OmniStack switch version 4.3.3 GA'
p1483
ag395
asS'Linux | Linux | 2.4.X | general purpose'
p1484
(lp1485
S'Astaro Security Linux 4 (Kernel 2.4.19)'
p1486
aS'Gentoo 1.2 linux (Kernel 2.4.19-gentoo-rc5)'
p1487
aS'Linux 2.2.16'
p1488
ag80
ag81
aS'Linux 2.4.0-test5'
p1489
aS'Linux 2.4.10 - 2.4.18'
p1490
aS'Linux 2.4.16 - 2.4.18'
p1491
aS'Linux 2.4.17 on HP 9000 s700'
p1492
aS'Linux 2.4.18'
p1493
aS'Linux 2.4.18 (PPC)'
p1494
aS'Linux 2.4.18 (x86)'
p1495
aS'Linux 2.4.18 - 2.4.19 w/o tcp_timestamps'
p1496
aS'Linux 2.4.18 - 2.4.20'
p1497
aS'Linux 2.4.18 - 2.4.20 (x86)'
p1498
aS'Linux 2.4.18 - 2.4.21 (x86)'
p1499
aS'Linux 2.4.18 - 2.4.27'
p1500
aS'Linux 2.4.19'
p1501
aS'Linux 2.4.19 (Mandrake, X86)'
p1502
aS'Linux 2.4.19 (x86)'
p1503
aS'Linux 2.4.19 - 2.4.20'
p1504
aS'Linux 2.4.19 w/grsecurity patch'
p1505
aS'Linux 2.4.20'
p1506
aS'Linux 2.4.20 (Red Hat)'
p1507
aS'Linux 2.4.20 (X86, Redhat 7.3)'
p1508
aS'Linux 2.4.20 - 2.4.22'
p1509
aS'Linux 2.4.20 - 2.4.22 w/grsecurity.org patch'
p1510
aS'Linux 2.4.20 - 2.4.28'
p1511
aS'Linux 2.4.20 or 2.6.0-test5-love3 (x86)'
p1512
aS'Linux 2.4.20 x86'
p1513
aS'Linux 2.4.20-ac2'
p1514
aS'Linux 2.4.21'
p1515
aS'Linux 2.4.21 (RedHat)'
p1516
aS'Linux 2.4.21 (Suse)'
p1517
aS'Linux 2.4.21 (Suse, X86)'
p1518
aS'Linux 2.4.21 (x86 SuSE)'
p1519
aS'Linux 2.4.21 (x86)'
p1520
aS'Linux 2.4.21 (x86, RedHat)'
p1521
aS'Linux 2.4.21 - 2.4.23'
p1522
aS'Linux 2.4.22'
p1523
aS'Linux 2.4.22 (SPARC)'
p1524
aS'Linux 2.4.22 (x86) w/grsecurity patch and with timestamps disabled'
p1525
aS'Linux 2.4.22 - 2.6.8'
p1526
aS'Linux 2.4.22 or 2.6.10'
p1527
aS'Linux 2.4.22 or 2.6.3 - 2.6.10'
p1528
aS'Linux 2.4.22 or 2.6.4 - 2.6.10'
p1529
aS'Linux 2.4.22-ck2 (x86)   w/grsecurity.org and HZ=1000 patches'
p1530
aS'Linux 2.4.22-gentoo-r2 i686'
p1531
aS'Linux 2.4.22-gentoo-r5 (x86) w/grsecurity'
p1532
aS'Linux 2.4.22-gentoo-rc'
p1533
aS'Linux 2.4.23 (x86)'
p1534
aS'Linux 2.4.23-grsec w/o timestamps'
p1535
aS'Linux 2.4.25 w/grsec (x86)'
p1536
aS'Linux 2.4.26'
p1537
aS'Linux 2.4.26 (gentoo)'
p1538
aS'Linux 2.4.26-gentoo-r6 w/grsec'
p1539
aS'Linux 2.4.27 or D-Link DSL-500T (running linux 2.4)'
p1540
aS'Linux 2.4.27 with grsec'
p1541
aS'Linux 2.4.29'
p1542
aS'Linux 2.4.30'
p1543
aS'Linux 2.4.4'
p1544
aS'Linux 2.4.6 - 2.4.26 or 2.6.9'
p1545
aS'Linux 2.4.7 (x86)'
p1546
aS'Linux 2.4.7 (zLinux on OS/390)'
p1547
ag82
aS'Linux 2.4.9 - 2.4.18'
p1548
ag83
aS'Microsoft Xbox running Debian Linux 2.4.20'
p1549
asS'BenQ | embedded || WAP'
p1550
(lp1551
S'BenQ Wireless Lan Router AWL700'
p1552
asS'Cisco | NmpSW || switch'
p1553
(lp1554
S'Cisco Catalyst 4006 Switch running NmpSW 7.4(2)'
p1555
asS'lwIP | lwIP || general purpose'
p1556
(lp1557
S'lwIP (Lightweight TCP/IP stack) version lwip-0.5.3-win32'
p1558
asS'uIP | uIP || specialized'
p1559
(lp1560
g491
asS'Siemens | ReliantUNIX || general purpose'
p1561
(lp1562
S'ReliantUNIX-Y 5.44 B0033 RM600 1/256 R10000'
p1563
aS'Siemens Reliant UNIX 5.45B20'
p1564
aS'Siemens RM200-C40 running ReliantUNIX-N 5.45'
p1565
asS'Linksys | embedded || WAP'
p1566
(lp1567
S'Linksys BEFW11S4/BEFSR41/BEFSR81/WRK54G Broadband router or RT31P2 VoIP router'
p1568
aS'Linksys WAP11 Wireless AP'
p1569
aS'Linksys, D-Link, or Planet WAP'
p1570
asS'Cisco | embedded || broadband router'
p1571
(lp1572
g662
aS'Cisco 761 running c760-in.r.NET3 4.3(1)'
p1573
aS'Cisco 762 Non-IOS Software release 4.1(2) or 766 ISDN router'
p1574
aS'Cisco 766 non-IOS software 4.2(3.5)'
p1575
aS'Cisco Soho 97 router running IOS 12.3(8)'
p1576
asS'Datavoice | embedded || CSUDSU'
p1577
(lp1578
S'Datavoice 3Com WAP or TxPORT PRISM T1 CSU/DSU'
p1579
asS'SGI | IRIX | 6.X | general purpose'
p1580
(lp1581
S'SGI IRIX 6.2'
p1582
aS'SGI IRIX 6.2 - 6.5'
p1583
aS'SGI IRIX 6.4 - 6.5.3m  # Lamont Granquist (again :)'
p1584
aS'SGI IRIX 6.5'
p1585
aS'SGI IRIX 6.5 (MIPS)'
p1586
aS'SGI IRIX 6.5 Origin2'
p1587
aS'SGI IRIX 6.5-6.5.15m'
p1588
aS'SGI IRIX 6.5.14'
p1589
aS'SGI IRIX 6.5.15m on SGI O2'
p1590
aS'SGI IRIX 6.5.16m'
p1591
aS'SGI IRIX 6.5.20m'
p1592
aS'SGI IRIX 6.5.25'
p1593
aS'SGI IRIX 6.5.7f-6.5.8f'
p1594
asS'Telebit | embedded || router'
p1595
(lp1596
S'Telebit NetBlazer router version 3.0'
p1597
aS'Telebit NetBlazer router Version 3.05'
p1598
aS'Telebit NetBlazer router Version 3.1'
p1599
asS'Sun | Solaris | 7 | general purpose'
p1600
(lp1601
g1304
ag1305
ag1306
ag926
asS'Leunig | embedded || power-device'
p1602
(lp1603
S'Leunig ePower Switch b723 v5.2'
p1604
asS'innovaphone | embedded || telecom-misc'
p1605
(lp1606
S'innovaphone IP200/IP400 VoIP phone/gateway'
p1607
asS'Open Networks | embedded || broadband router'
p1608
(lp1609
S'Open Network 501r or 531r (ADSL Router)'
p1610
asS'Packet8 | embedded || VoIP adapter'
p1611
(lp1612
S'Packet8 BPA410 Broadband Phone Adapter'
p1613
aS'Packet8 DTA310 VoIP/POTS gateway'
p1614
asS'Redback | embedded || broadband router'
p1615
(lp1616
S'Redback SMS 1000-2000 DSL Router'
p1617
asS'Asante | embedded || switch'
p1618
(lp1619
S'Asante 6524-2G GigE switch'
p1620
aS'Asante IntraStack Ethernet Switch (6014 DSB Versions: BP(2.06 ), FW(1.03 ))'
p1621
aS'Asante IntraSwitch 5324'
p1622
aS'Asante IntraSwitch 6216M firmware v2.05A'
p1623
asS'CompUSA | embedded || broadband router'
p1624
(lp1625
S'CompUSA Broadband Router'
p1626
asS'Alcatel | embedded || VoIP phone'
p1627
(lp1628
S'Alcatel Advanced Reflexes IP Phone or IBM x450 remote management console'
p1629
asS'Brother | embedded || printer'
p1630
(lp1631
S'Brother HL-1230 Printer'
p1632
aS'Brother HL-2070N Printer'
p1633
asS'Network Systems | embedded || router'
p1634
(lp1635
S'Network Systems router NS6614 (NSC 6600 series)'
p1636
asS'DEC | IOS | 10.X | router'
p1637
(lp1638
S'Cisco 1601 (IOS 11.0) or DECbrouter90T1 (Runs Cisco IOS 10.2(5))'
p1639
asS'Swissvoice | embedded || VoIP phone'
p1640
(lp1641
S'Swissvoice IP 10S VoIP phone'
p1642
asS'Savin | embedded || printer'
p1643
(lp1644
g118
asS'Cnet | embedded || broadband router'
p1645
(lp1646
S'Cnet CNIG904B Internet Broadband Gateway firmware version 1.11'
p1647
asS'Liebert-Hiross | embedded || specialized'
p1648
(lp1649
S'Liebert-Hiross HiSNMP A/C controlling unit'
p1650
asS'Checkpoint | IPSO || firewall'
p1651
(lp1652
S'Nokia IPSO 3.2-3.5 Running Checkpoint Firewall-1 or NG FP2'
p1653
aS'Nokia IPSO 3.2-4.3.1-FCS5 Running checkpoint FW1'
p1654
aS'Nokia IPSO 3.6 running CheckPoint FW-1 NG FP2'
p1655
asS'Intel | embedded || broadband router'
p1656
(lp1657
g718
asS'Cisco | IOS | 11.X | switch'
p1658
(lp1659
S'Cisco Router/Switch with IOS 11.2'
p1660
aS'Cisco switch/router with IOS 11.1(7)-11.2(8.10)'
p1661
asS'Ascend | embedded || broadband router'
p1662
(lp1663
S'Ascend DSLPipe DSL-50S-CELL DSL router'
p1664
asS'Copper Mountain | embedded || terminal server'
p1665
(lp1666
g1470
asS'AXIS | Linux || print server'
p1667
(lp1668
S'AXIS Network Print Server'
p1669
asS'Apple | Mac OS X | 10.0.X | general purpose'
p1670
(lp1671
S'Apple Mac OS X 1.1-1.2 (Rhapsody 5.5-5.6) on a G3'
p1672
aS'Apple Mac OS X Server 1.0-1.0-1 (Rhapsody 5.3 - 5.4)'
p1673
ag357
asS'Amiga | AmigaOS || general purpose'
p1674
(lp1675
S'Amiga OS 3.5 (Miami TCP/IP Stack v3.1)'
p1676
aS'AmigaOS 2.1 running AmiTCP4.3'
p1677
aS'AmigaOS 3.1 running Miami Deluxe 0.9m'
p1678
aS'AmigaOS 3.5/3.9 running Miami Deluxe 1.0c'
p1679
aS'AmigaOS AmiTCP/IP 4.3'
p1680
aS'AmigaOS AmiTCP/IP Genesis 4.6'
p1681
aS'AmigaOS Miami 2.1-3.0'
p1682
aS'AmigaOS Miami 3.0'
p1683
aS'AmigaOS Miami 3.1-3.2'
p1684
aS'AmigaOS Miami Deluxe 0.9 - Miami 3.2B'
p1685
asS'Hydra | embedded || load balancer'
p1686
(lp1687
S'Hydra HydraWEB 5000'
p1688
asS'Linksys | embedded || bridge'
p1689
(lp1690
S'Linksys WET-11 Wireless Ethernet bridge'
p1691
aS'Linksys WGA54G Wireless Game Adapter (bridge)'
p1692
asS'm0n0wall | FreeBSD | 5.X | firewall'
p1693
(lp1694
S'M0n0wall 1.2b7 FreeBSD 5.3 based firewall'
p1695
asS'Tandem | Tandem NSK || general purpose'
p1696
(lp1697
S'Tandem NSK D39'
p1698
aS'Tandem NSK D40'
p1699
asS'MikroTik | RouterOS || software router'
p1700
(lp1701
S'MikroTik RouterOS 2.7.20'
p1702
asS'Cisco | embedded || WAP'
p1703
(lp1704
g803
asS'AXIS | embedded || print server'
p1705
(lp1706
g201
aS'AXIS 540 Ethernet Print Server ver 5.48'
p1707
aS'AXIS 540 Print Server'
p1708
aS'AXIS 540/542 Print Server v5.30'
p1709
aS'AXIS Print Server firmware 7.0.2'
p1710
asS'Kyocera | embedded || printer'
p1711
(lp1712
S'Kyocera FS-1700+ printer'
p1713
aS'Kyocera IB-21 Printer NIC'
p1714
aS'Kyocera Printer (network module IB-21E 1.3.x)'
p1715
aS'Kyocera SB-4e printer NIC'
p1716
asS'OpenBSD | OpenBSD | 2.7 | general purpose'
p1717
(lp1718
S'OpenBSD 2.7/SPARC or NFR IDS Appliance ( 12/10/00 )'
p1719
asS'Cisco | embedded || VoIP phone'
p1720
(lp1721
S'Cisco 7960 SIP Phone running OS 4.2'
p1722
aS'Cisco IP phone (POS3-04-3-00, PC030301)'
p1723
aS'Cisco IP Phone 7910 or 7940 Firmware 3.1'
p1724
aS'Cisco IP Phone 7940'
p1725
aS'Cisco IP Phone 7960'
p1726
aS'Cisco IP Phone 7970G'
p1727
ag93
asS'Tally | embedded || printer'
p1728
(lp1729
S'Tally 9112 Printer'
p1730
aS'Tallycom+ Print Server'
p1731
asS'Apple | A/UX || general purpose'
p1732
(lp1733
S'Apple A/UX 3.1.1 SVR2 or OpenStep 4.2'
p1734
asS'Nokia | embedded || router'
p1735
(lp1736
S'Nokia Rooftop Wireless Router model R240A'
p1737
asS'NEC | UX/4800 || general purpose'
p1738
(lp1739
S'NEC UX/4800'
p1740
asS'Terayon | embedded || broadband router'
p1741
(lp1742
S'Terayon Tj715x cable modem'
p1743
asS'Huawei | VRP || router'
p1744
(lp1745
S'Huawei Quidway R2621 router running VRP 1.5.6(1)'
p1746
aS'Huawei Quidway Router R2621E VRP 1.5.6'
p1747
asS'Telsey | embedded || broadband router'
p1748
(lp1749
S'CPV Telsey Broadband + voip residential gateway or Signal SP100x VoIP appliance'
p1750
asS'Ericsson | embedded || terminal server'
p1751
(lp1752
S'Ericsson Tigris Access Server Software V. 12.1.*'
p1753
asS'Zero One | embedded || print server'
p1754
(lp1755
g931
asS'Perle | embedded || remote management'
p1756
(lp1757
S'Perle 594e Network Controller'
p1758
asS'Netscreen | ScreenOS || firewall'
p1759
(lp1760
S'Netscreen 5XP firewall+vpn (OS 3.0.1r2)'
p1761
aS'Netscreen 5XP firewall+vpn (os 4.0.3r2.0)'
p1762
asS'Cisco | Content Networking System || web proxy'
p1763
(lp1764
S'Cisco ACNS 5.1 Content Engine'
p1765
aS'Cisco Content Engine 505 Software V. 4.2.1'
p1766
aS'Cisco Content Engine 560 running Content Networking System V. 4.2.3'
p1767
aS'Cisco Content Engine ACNSS V5.2.1 or V5.3.1'
p1768
asS'HP | HP-UX | 10.X | general purpose'
p1769
(lp1770
S'HP-UX 10.20 # 9000/777 or A 712/60 with tcp_random_seq = 1 or 2'
p1771
aS'HP-UX 10.20 A 9000/715 or 9000/899'
p1772
aS'HP-UX 10.20 E 9000/777 or A 712/60 with tcp_random_seq = 0'
p1773
aS'HP-UX B.10.01 A 9000/715'
p1774
aS'HP-UX B.10.20 9000/897'
p1775
aS'HP-UX B.10.20 A 9000/715 or 9000/712 or 9000/871 with tcp_random_seq = 1'
p1776
aS'HP-UX B.10.20 A 9000/750'
p1777
aS'HP-UX B.10.20 A with tcp_random_seq = 0'
p1778
aS'HP-UX release B.10.20 version A'
p1779
asS'SonicWall | SonicOS || firewall'
p1780
(lp1781
g398
aS'SonicWall 4060 firewall'
p1782
aS'SonicWall PRO 3060 firewall'
p1783
ag803
aS'SonicWall SOHO-3 firewall'
p1784
aS'SonicWall SOHO3 firewall'
p1785
aS'SonicWall TZ 170'
p1786
aS'SonicWall TZ 170 Firewall'
p1787
aS'SonicWall TZ170 Firewall'
p1788
aS'SonicWall/10 firewall'
p1789
asS'Cisco | PIX || firewall'
p1790
(lp1791
S'Cisco PIX 506 Firewall'
p1792
asS'Meridian | embedded || storage-misc'
p1793
(lp1794
S'Meridian Data Network CD-ROM Server (V4.20 Nov 26 1997)'
p1795
asS'NTT | embedded || telecom-misc'
p1796
(lp1797
g802
asS'Eicon | embedded || broadband router'
p1798
(lp1799
S'Eicon Diva1830 ISDN router running 1.5 firmware'
p1800
asS'IBM | AIX | 5.X | general purpose'
p1801
(lp1802
S'IBM AIX 5.1'
p1803
aS'IBM AIX 5.1 - 5.2'
p1804
aS'IBM AIX 5.1 on a p610-6C1'
p1805
aS'IBM AIX 5.1-5.2'
p1806
aS'IBM AIX 5.103'
p1807
aS'IBM AIX 5.2'
p1808
aS'IBM AIX 5.2 (on RS/6000)'
p1809
aS'IBM AIX 5.2.3'
p1810
aS'IBM AIX 5.3'
p1811
aS'IBM AIX 5.3 ML01'
p1812
asS'Cisco | IOS | 12.X | broadband router'
p1813
(lp1814
S'Cisco 827 ADSL router running IOS 112.2(11)'
p1815
aS'Cisco 827 ADSL router running IOS 12.1(1)XB1'
p1816
asS'Cisco | embedded || encryption accelerator'
p1817
(lp1818
S'Cisco 3000 Series VPN Concentrator'
p1819
aS'Cisco 3000 Series VPN concentrator (OS ver 4.1.x)'
p1820
ag1012
asS'Cisco | IOS | 12.X | switch'
p1821
(lp1822
S'Cisco catalyst 2924 running IOS 12.0(5)WC5'
p1823
aS'Cisco Catalyst 2924XL switch running IOS 12.0(5)'
p1824
aS'Cisco Catalyst 2950 switch running IOS 12.0(5.3)WC(1)'
p1825
aS'Cisco Catalyst 2950 switch running IOS 12.1(9)EA1 or IOS 12.1(22)EA2'
p1826
aS'Cisco IOS 12.0(5)WC5a on a catalyst 2900XL switch'
p1827
asS'Apple | Mac OS | 8.X | general purpose'
p1828
(lp1829
S'Apple Mac OS 7.5.5 - 9'
p1830
aS'Apple Mac OS 8 running on an LC 475'
p1831
aS'Apple Mac OS 8.0'
p1832
aS'Apple Mac OS 8.1'
p1833
aS'Apple Mac OS 8.1 running on a PowerPC G3 (iMac)'
p1834
aS'Apple Mac OS 8.5'
p1835
aS'Apple Mac OS 8.5.1 (Appleshare IP 6.0)'
p1836
aS'Apple Mac OS 8.6'
p1837
asS'Beck-IPC | embedded || specialized'
p1838
(lp1839
S'IPC@CHIP CHIP-RTOS version SC12'
p1840
asS'Compatible Systems | embedded || broadband router'
p1841
(lp1842
S'Compatible Systems ISDN/leased-line/dialup Microrouter 2220R w/ firmware v4.5'
p1843
aS'Compatible Systems ISDN/leased-line/dialup MicroRouter 900i v3.0.9'
p1844
asS'SGI | IRIX | 5.X | general purpose'
p1845
(lp1846
S'SGI IRIX 5.2'
p1847
aS'SGI IRIX 5.3'
p1848
asS'FiberLine | embedded || broadband router'
p1849
(lp1850
S'FiberLine Wireless DSL router'
p1851
asS'Microsoft | DOS || general purpose'
p1852
(lp1853
S"Bart's Network Boot Disk 2.7 (X86) MS-DOS"
p1854
aS'NCSA Telnet (dos)'
p1855
aS'NCSA Telnet 2.3.08 for the PC (DOS)'
p1856
aS'Watt-32 DOS tcp/ip stack'
p1857
aS'WNOS 5.0 on Microsoft DOS 6.22'
p1858
asS'Netopia | embedded || WAP'
p1859
(lp1860
g1026
asS'Novell | NetWare | 5.X | general purpose'
p1861
(lp1862
S'Novell NetWare 3.12 - 5.00'
p1863
aS'Novell NetWare 4.11-5.0SP5'
p1864
aS'NetWare 5.0 SP 3a'
p1865
aS'NetWare 5.1 SP3'
p1866
aS'Novell NetWare 5.0 with Border Manager'
p1867
aS'Novell NetWare 5.00.09 SP06'
p1868
aS'Novell NetWare 5.1 SP5'
p1869
aS'Novell NetWare 5.1 SP5 with Groupwise'
p1870
aS'Novell NetWare 5.1 SP8 or 6.5 SP3'
p1871
aS'Novell NetWare 5.1-6.0'
p1872
aS'Novell NetWare 5.1SP4 - 6.0'
p1873
aS'Novell NetWare 5.1SP5 - 6.5'
p1874
aS'Novell NetWare 5.x'
p1875
asS'PowerShow | embedded || webcam'
p1876
(lp1877
S'PowerShow NetworKam webcam'
p1878
asS'Grandstream | embedded || VoIP adapter'
p1879
(lp1880
S'Grandstream HT-286 POTS<->VoIP phone gateway device'
p1881
asS'Ascend | embedded || router'
p1882
(lp1883
S'Ascend Max 1800 50Ap8+ or 2024 router'
p1884
aS'Ascend P130 Router'
p1885
aS'Ascend P75 router'
p1886
aS'Ascend Pipeline 400/T1 (Software V 4.5B)'
p1887
aS'Ascend Pipeline 50'
p1888
aS'Ascend Pipeline 50 rev 4.6C'
p1889
aS'Ascend Pipeline 50 running 5.1A Firmware'
p1890
aS'Ascend Pipeline P130 or 50'
p1891
asS'IBM | embedded || router'
p1892
(lp1893
S'IBM 2210 router'
p1894
aS'IBM 2210 Router MRS 2.x on Token Ring interface'
p1895
aS'IBM 8210 Multiprotocol Switching Server/router for ATM networks'
p1896
ag516
asS'Toshiba | embedded || printer'
p1897
(lp1898
g470
aS'Toshiba estudio 4511 Multifunction Copier/Fax/Scanner/Printer'
p1899
asS'BreezeCOM | embedded || bridge'
p1900
(lp1901
S'BreezeCOM BreezeACCESS Wireless bridge'
p1902
asS'CacheFlow | CacheOS || web proxy'
p1903
(lp1904
S'CacheFlow 6000 web proxy cache running CacheOS 4.1.05'
p1905
aS'CacheFlow 6000 web proxy running Security Gateway 2.1.0'
p1906
aS'Cacheflow 6x5 web proxy cache running CacheOS 3.1.19-4.1.05'
p1907
aS'CacheFlow CacheOS (web proxy cache) CFOS 2.1.08 - 2.2.1'
p1908
aS'CacheFlow CacheOS 3.1 on a model 6000 web proxy cache'
p1909
aS'CacheOS (CacheFlow 2000 proxy cache)'
p1910
asS'Dell | embedded || printer'
p1911
(lp1912
S'Dell 3100cn/5100cn printer'
p1913
asS'NAT | embedded || router'
p1914
(lp1915
S'NAT LANB/290 router Console Program V4.00'
p1916
asS'Sun | embedded || storage-misc'
p1917
(lp1918
S'Sun StorEdge T3 Storage Array'
p1919
asS'Zcomax | embedded || WAP'
p1920
(lp1921
S'Zcomax Wireless Access Point XI-1500'
p1922
asS'Belkin | embedded || broadband router'
p1923
(lp1924
S'Belkin DSL/Cable Router'
p1925
asS'Cyclades | Cyros || router'
p1926
(lp1927
S'Cyclades PathRouter V 1.2.4'
p1928
asS'Wiesemann & Theis | embedded || specialized'
p1929
(lp1930
S'WuT Web Thermometer'
p1931
asS'NetApp | embedded || web proxy'
p1932
(lp1933
g1372
aS'NetApp NetCache C1100 (NetApp 5.1D4)'
p1934
aS'NetApp NetCache C1100 with NetAppliance 5.0'
p1935
aS'NetApp NetCache C6100 (NetApp 5.5)'
p1936
aS'NetApp NetCache C760 os 4.x'
p1937
aS'NetApp NetCache running OS 5.4R2'
p1938
asS'3Com | embedded || telecom-misc'
p1939
(lp1940
g1470
asS'Ixia | embedded || specialized'
p1941
(lp1942
S'Ixia 1600 -- Ixia Socket/Serial TCL traffic generation and analysis server'
p1943
asS'FreeBSD | FreeBSD | 5.X | general purpose'
p1944
(lp1945
g373
aS'FreeBSD 5.0-CURRENT (Apr 2002)'
p1946
aS'FreeBSD 5.0-RELEASE'
p1947
aS'FreeBSD 5.0-RELEASE or -CURRENT (Jan 2003)'
p1948
aS'FreeBSD 5.1-CURRENT (June 2003) on Sparc64'
p1949
aS'FreeBSD 5.1-RELEASE (x86)'
p1950
aS'FreeBSD 5.2'
p1951
aS'FreeBSD 5.2 - 5.3'
p1952
aS'FreeBSD 5.2 - 5.4'
p1953
aS'FreeBSD 5.2-CURRENT - 5.3 (x86) with pf scrub all'
p1954
aS'FreeBSD 5.2.1 (SPARC)'
p1955
aS'FreeBSD 5.3'
p1956
aS'FreeBSD 5.3-RELEASE'
p1957
aS'FreeBSD 5.3-STABLE'
p1958
aS'FreeBSD 5.4'
p1959
aS'FreeBSD 5.4-RELEASE'
p1960
asS'Gatorbox | GatorShare || bridge'
p1961
(lp1962
g878
asS'SpeedStream | embedded || broadband router'
p1963
(lp1964
g228
aS'Speedstream 5871 DSL router'
p1965
asS'Pirelli | embedded || broadband router'
p1966
(lp1967
S'Pirelli Microbusiness ADSL router'
p1968
asS'Novell | NetWare | 3.X | general purpose'
p1969
(lp1970
g1863
aS'Novell NetWare 3.12 or 386 TCP/IP'
p1971
asS'NetMatrix | embedded || general purpose'
p1972
(lp1973
S'IPAD (Internet Protocol Adapter) Model 5000 or V.1.52'
p1974
asS'Nokia | IPSO || firewall'
p1975
(lp1976
S'Nokia IP530 Network Appliance (IPSO 3.4-3.4.2)'
p1977
aS'Nokia IPSO 3.7 running CheckPoint FW-1'
p1978
aS'Nokia IPSO 3.8.x'
p1979
asS'Lexmark | embedded || printer'
p1980
(lp1981
S'Lexmark M412n network printer'
p1982
aS'Lexmark Marknet X2031e printer'
p1983
aS'Lexmark Optra N Laser Printer'
p1984
aS'Lexmark Optra network printer'
p1985
aS'Lexmark Optra printer'
p1986
aS'Lexmark Optra printer w/MarkNet XL Network Adapter'
p1987
aS'Lexmark Optra S Printer'
p1988
aS'Lexmark T520 printer'
p1989
aS'Lexmark T522 printer'
p1990
aS'Lexmark T522/T622 printer'
p1991
asS'IBM | embedded || remote management'
p1992
(lp1993
g1629
aS'IBM BladeCenter Remote Management Module'
p1994
aS'IBM Remote Supervisor Adapter II'
p1995
asS'NIB | embedded || printer'
p1996
(lp1997
S'NIB 450-E printer network interface'
p1998
asS'Huawei | VRP || switch'
p1999
(lp2000
g1007
asS'Siemens | embedded || specialized'
p2001
(lp2002
S'Siemens S7-400 programmable logic controller'
p2003
asS'Digitel | embedded || router'
p2004
(lp2005
S'Digitel NetRouter NR3000'
p2006
aS'Digitel NetRouter NR3100'
p2007
asS'Novell | NetWare | 4.X | general purpose'
p2008
(lp2009
g1863
aS'NetWare 4.11 SP7- 5 SP3A BorderManager 3.5'
p2010
aS'NetWare 4.11 SP8a - NetWare 5 SP4'
p2011
aS'novell netware 4.11'
p2012
ag1864
asS'Compatible Systems | embedded || router'
p2013
(lp2014
S'Compatible Systems (RISC Router, IntraPort)'
p2015
ag105
asS'Apple | Mac OS | 9.X | general purpose'
p2016
(lp2017
g1830
aS'Apple Mac OS 9 - 9.1'
p2018
ag1288
aS'Apple Mac OS 9.2.2'
p2019
aS'Apple MacOS 9.2.2'
p2020
ag1289
asS'DEC | OpenVMS | 7.X | general purpose'
p2021
(lp2022
g1190
ag697
aS'DEC OpenVMS 7.1'
p2023
aS'DEC OpenVMS 7.1 ALPHA'
p2024
aS"DEC OpenVMS 7.1 Alpha running DIGITAL's UCX v4.1ECO2 TCP/IP package"
p2025
aS"DEC OpenVMS 7.1 using Process Software's TCPWare 5.3 TCP/IP package"
p2026
aS'DEC OpenVMS 7.2'
p2027
aS'DEC OpenVMS 7.2 Alpha'
p2028
aS'DEC OpenVMS 7.3'
p2029
aS'DEC OpenVMS 7.3 (Alpha) TCP/IP 5.3'
p2030
aS'DEC OpenVMS 7.3 (Compaq TCP/IP 5.3)'
p2031
aS'DEC OpenVMS 7.3-1'
p2032
aS'DEC OpenVMS Alpha 7.2-3'
p2033
aS'DEC OpenVMS Alpha V7.1-1H2 running DIGITAL TCP/IP Services (UCX) V4.2'
p2034
aS'DEC OpenVMS V7.1 on VAX 6000-530'
p2035
aS"DEC OpenVMS v7.1 VAX running Process Software's TCPWare 5.1-5 TCP/IP package"
p2036
aS'DEC OpenVMS v7.3 on VAXStation 4000/60'
p2037
aS'DEC OpenVMS VAX V7.3, Process Software MultiNet V5.0'
p2038
aS"DEC OpenVMS/Alpha 7.1 using Process Software's TCPWare V5.3-4"
p2039
aS'DEC VMS MultiNet V4.2(16)/ OpenVMS V7.1-2'
p2040
aS'DEC VMS MultiNet V4.4 / OpenVMS V7.1'
p2041
asS'Sequent | DYNIX || general purpose'
p2042
(lp2043
S'Sequent DYNIX/PTX 4.4.2'
p2044
aS'Sequent DYNIX/ptx 4.4.6 x86'
p2045
asS'Data General | DG/UX || general purpose'
p2046
(lp2047
S'Data General DG/UX Release R4.11MU02'
p2048
aS'Data General DG/UX Release R4.20MU02'
p2049
aS'Data General DG/UX Release R4.20MU04'
p2050
aS'Data General DG/UX Release R4.20MU06'
p2051
asS'ASCOM | embedded || broadband router'
p2052
(lp2053
g229
asS'CastleNet | embedded || broadband router'
p2054
(lp2055
S'CastleNet AR502/GlobespanVirata GS8100 (same thing) DSL router'
p2056
asS'OpenBSD | OpenBSD | 2.X | general purpose'
p2057
(lp2058
S'OpenBSD 2.1 - 2.3/SPARC'
p2059
aS'OpenBSD 2.1/x86'
p2060
aS'OpenBSD 2.2 - 2.3'
p2061
aS'OpenBSD 2.6 with all available patches as of roughly Feb01'
p2062
aS'OpenBSD 2.6-2.8'
p2063
aS'OpenBSD 2.8 (x86)'
p2064
aS'OpenBSD 2.9-beta through release (x86)'
p2065
aS'OpenBSD 2.9-stable'
p2066
aS'OpenBSD Post 2.4 (November 1998) - 2.5'
p2067
asS'VegaStream | embedded || VoIP gateway'
p2068
(lp2069
S'Vega 50/400'
p2070
asS'NetJet | embedded || printer'
p2071
(lp2072
S'NetJet Version 3.0 - 4.0 Printer'
p2073
asS'DEC | Ultrix || general purpose'
p2074
(lp2075
S'DEC Ultrix 4.1'
p2076
aS'DEC Ultrix 4.2 - 4.5'
p2077
asS'Apple | Mac OS | 7.X | general purpose'
p2078
(lp2079
S'Apple Mac OS 7.0-7.1 With MacTCP 1.1.1 - 2.0.6'
p2080
aS'Apple Mac OS 7.1'
p2081
ag1830
asS'GNU | Hurd || general purpose'
p2082
(lp2083
S'GNU Hurd 0.2 (GNUmach-1.2/Hurd-0.2) x86'
p2084
asS'Motorola | VxWorks || broadband router'
p2085
(lp2086
S'Motorola (SB5100/CG4500E) or Thomson (TCM390/TCM410) Cable Modem'
p2087
aS'Motorola SurfBoard 4401 cable modem'
p2088
aS'Motorola SurfBoard SB4100E Cable Modem'
p2089
aS'Motorola Surfboard SB5100 cable modem'
p2090
aS'Motorola SURFboard SBG1000 Broadband router'
p2091
asS'Avaya | embedded || telecom-misc'
p2092
(lp2093
S'Avaya TN2302 Prowler/Medpro H.323 gateway'
p2094
asS'Pigtail | VxWorks || VoIP phone'
p2095
(lp2096
S'Pigtail Express VoIP phone (runs VxWorks)'
p2097
asS'D-Link | embedded || WAP'
p2098
(lp2099
S'Broadband router or WAP: D-Link DI-series, Sitecom BHS WAP, or SMC Barricade'
p2100
aS'D-Link DI-713P WAP'
p2101
aS'D-Link DI-713P Wireless Gateway (2.57 build 3a)'
p2102
aS'D-Link DI-774 WAP'
p2103
aS'D-Link DWL-5000AP WAP/BSP 1.3'
p2104
aS'D-Link, SMC, Tonze, or US Robotics Wireless Broadband router'
p2105
aS'Wireless access point (WAP): D-Link DRC-1000AP or 3Com Access Point 2000'
p2106
ag1570
asS'Edimax | embedded || print server'
p2107
(lp2108
S'Edimax PS-1001 Print Server model'
p2109
aS'Edimax PS-901 Print Server model 1P/13E-9.5.12'
p2110
asS'Perle | embedded || terminal server'
p2111
(lp2112
S'Perle JetStream 8500 Serial/Access Server, v 2.6.0'
p2113
asS'IBM | OS/2 || general purpose'
p2114
(lp2115
S'IBM OS/2 V 2.1'
p2116
aS'IBM OS/2 V.3'
p2117
aS'IBM OS/2 Warp 4.0'
p2118
aS'IBM OS/2 Warp Server for E-business (Aurora) Beta'
p2119
aS'OS/2 Warp Server for eBusiness 4.52'
p2120
asS'UTStarcom | embedded || VoIP phone'
p2121
(lp2122
S'UTStarcom F1000 wifi voip phone'
p2123
asS'VersaNet | embedded || terminal server'
p2124
(lp2125
S'VersaNet ISP-Accelerator(TM) Remote Access Server'
p2126
asS'Epson | embedded || printer'
p2127
(lp2128
g398
aS'EPSON Ethernet Ver. 4.20 6.04, 13395E-98'
p2129
aS'Epson Stylus 800n/EPSON Ethernet Ver. 4.20'
p2130
asS'DEC | embedded || terminal server'
p2131
(lp2132
S'DECserver 700-16 terminal server, Network Access SW V2.2'
p2133
asS'Siemens | embedded || broadband router'
p2134
(lp2135
S'Siemens Broadband Router 5940 T1/E1'
p2136
aS'Siemens Santis 50 Wireless adsl router'
p2137
aS'Siemens Speedstream 2602 DSL/Cable router'
p2138
asS'Pelco | embedded || webcam'
p2139
(lp2140
S'Pelco Network Camera'
p2141
asS'Cyclades | Cyras || router'
p2142
(lp2143
S'Cyclades PathRouter'
p2144
aS'Cyclades PathRouter/PC'
p2145
asS'Capellix | embedded || storage-misc'
p2146
(lp2147
S'Capellix 3000 Modular SAN Switch'
p2148
asS'Packeteer | pSOS || load balancer'
p2149
(lp2150
S'Packeteer PacketShaper 4000 v4.1.3b2 2000-04-05'
p2151
aS'pSOS embedded IP stack, such as Packeteer IP-PacketShaper 2000 V3.1'
p2152
asS'Atari | Atari || general purpose'
p2153
(lp2154
S'Atari Mega STE running JIS-68k 3.0'
p2155
asS'D-Link | embedded || broadband router'
p2156
(lp2157
S'D-Link 2630 Broadband router'
p2158
aS'D-Link 704P Broadband Gateway or DI-713P WAP'
p2159
aS'D-Link DI-604 Broadband router'
p2160
aS'D-Link DI-604 Ethernet Broadband Router'
p2161
aS'D-Link DI-604 Ethernet router'
p2162
aS'D-Link DI-701, Version 2.22'
p2163
aS'D-Link DI-704 cable/DSL residential gateway, firmware 2.50 build 9'
p2164
aS'D-Link DI-704P Cable/DSL Residential Gateway'
p2165
aS'D-Link DI-804 Cable/DSL Residential Gateway'
p2166
ag476
aS'D-Link DSL-300G+ DSL modem'
p2167
aS'D-Link DSL-500 DSL modem'
p2168
aS'D-Link Systems DI-713P Wireless Gateway'
p2169
aS'D-Link VPN Router DI-714P+/DI-804HV'
p2170
aS'DI-701 Residential Gateway or KA9Q NOS - KO4KS-TNOS v. 2.30'
p2171
ag1540
asS'Cayman | embedded || broadband router'
p2172
(lp2173
S'Cayman 2E DSL/CABLE router'
p2174
aS'Cayman 3000 DSL Router'
p2175
aS'Netopia Cayman 3346 DSL router'
p2176
asS'Nortel | embedded || telecom-misc'
p2177
(lp2178
g802
aS'Nortel Micronode telephone switch running OS version GSM15'
p2179
aS'Nortel Passport 4400 Series multiservice access switch'
p2180
asS'Shiva | embedded || router'
p2181
(lp2182
g689
asS'BSDI | BSD/OS | 2.X | general purpose'
p2183
(lp2184
S'BSDI BSD/OS 2.0 - 2.1'
p2185
asS'Okidata | embedded || printer'
p2186
(lp2187
g167
aS'OkiData 20nx printer with OkiLAN ethernet module'
p2188
aS'Okidata 7200 Printer'
p2189
aS'Okidata OKI C5100 Laser Printer'
p2190
aS'Okidata OKI C7200 Printer'
p2191
asS'Labtam | embedded || X terminal'
p2192
(lp2193
S'Labtam MT300, X-Terminal Kernel'
p2194
asS'Megabit | embedded || terminal server'
p2195
(lp2196
S'MegaBit Gear TE4111C modem'
p2197
asS'Tahoe | Tahoe OS || router'
p2198
(lp2199
S'Tahoe OS 1.2.1 running on Tahoe router'
p2200
asS'Dell | embedded || remote management'
p2201
(lp2202
S'Dell Remote Access Controller III/XT or 4/I'
p2203
asS'3Com | embedded || WAP'
p2204
(lp2205
g1579
ag1470
asS'Cisco | IOS | 12.X | WAP'
p2206
(lp2207
S'Cisco 1200 access point (WAP) running IOS 12.2(8)'
p2208
aS'Cisco AP1220 WAP running IOS 12.2(11)'
p2209
asS'Cisco | IOS || router'
p2210
(lp2211
S'Cisco CPA2500 (68030) or 2511 router'
p2212
aS'Cisco uBR 7223 router'
p2213
asS'Signal | embedded || VoIP gateway'
p2214
(lp2215
g1750
asS'Kentrox | embedded || CSUDSU'
p2216
(lp2217
g444
asS'Secure Computing | embedded || firewall'
p2218
(lp2219
S'Secure Computing SECUREZone Firewall Version 2.0'
p2220
aS'Secure Computing Sidewinder firewall 3.2 update 4'
p2221
aS'Secure Computing Sidewinder firewall 5.2.1.06'
p2222
asS'AudioCodes | embedded || VoIP gateway'
p2223
(lp2224
S'AudioCodes MP-104 VoIP Gateway FXO'
p2225
aS'AudioCodes MP-108 VoIP Gateway FXS'
p2226
asS'Virtual Access | embedded || router'
p2227
(lp2228
S'Virtual Access LinXpeed Pro 120 router running Software 7.4.33CM'
p2229
asS'Planet | embedded || switch'
p2230
(lp2231
S'Planet FGSW-2620VS switch'
p2232
asS'Computone | embedded || terminal server'
p2233
(lp2234
S'Computone Power Rack IntelliServer terminal server Release 1.5.4d'
p2235
asS'DEC | TOPS-20 || general purpose'
p2236
(lp2237
S'DEC TOPS-20 Monitor 7(102540)-1,TD-1'
p2238
aS'DEC TOPS-20 Monitor 7(21733),KL-10 (DEC 2065)'
p2239
asS'Compaq | Windows | PocketPC/CE | terminal'
p2240
(lp2241
S'Compaq T1010 Thin Client Windows CE 2.12'
p2242
asS'Cisco | embedded || hub'
p2243
(lp2244
g802
ag550
asS'WatchGuard | embedded || firewall'
p2245
(lp2246
S'WatchGuard Firebox 700 firewall'
p2247
aS'WatchGuard Firebox II version 7.00'
p2248
aS'WatchGuard Firebox SOHO 6tc firewall'
p2249
aS'WatchGuard Firebox SOHO V.5-V.6 firewall'
p2250
aS'WatchGuard Firebox X700'
p2251
asS'Sun | Solaris | 10 | general purpose'
p2252
(lp2253
S'Sun Solaris 5.10.1'
p2254
aS'SunOS 5.10 (sparc)'
p2255
aS'SunOS webbox 5.10 Generic'
p2256
ag564
asS'IBM | AIX | 4.X | general purpose'
p2257
(lp2258
S'IBM AIX 4.0 - 4.2'
p2259
aS'IBM AIX 4.02.0001.0000'
p2260
aS'IBM AIX 4.1'
p2261
aS'IBM AIX 4.1-4.1.5'
p2262
aS'IBM AIX 4.2'
p2263
aS'IBM AIX 4.2-4.3.3'
p2264
aS'IBM AIX 4.2.X-4.3.3.0'
p2265
aS'IBM AIX 4.3'
p2266
aS'IBM AIX 4.3.1 on a IBM RS/6000 R40'
p2267
aS'IBM AIX 4.3.2.0-4.3.3.0 on an IBM RS/*'
p2268
aS'IBM AIX 4.3.3.0 on an IBM RS/*'
p2269
aS'IBM AIX v4.1 running on a C10'
p2270
aS'IBM AIX v4.2'
p2271
aS'IBM AIX Version 4.3'
p2272
asS'Telindus | embedded || broadband router'
p2273
(lp2274
S'Telindus 11xx ADSL Router'
p2275
asS'QNX | QNX || general purpose'
p2276
(lp2277
S'QNX 4.24 - 4.25 realtime embedded OS'
p2278
aS'QNX 6.00 realtime embedded OS (x86)'
p2279
asS'Microsoft | Windows Longhorn || general purpose'
p2280
(lp2281
S'Microsoft Windows Longhorn Preview'
p2282
asS'Convex | ConvexOS || general purpose'
p2283
(lp2284
S'Convex OS Release 10.1'
p2285
asS'GrandStream | embedded || VoIP adapter'
p2286
(lp2287
S'GrandStream 486 VoIP adapter'
p2288
asS'Novell | NetWare | 6.X | general purpose'
p2289
(lp2290
g1871
ag1872
ag1873
ag1874
aS'NetWare 6.5 SP2'
p2291
aS'Novell Netware 6 (no service packs)'
p2292
aS'Novell NetWare 6 SP1'
p2293
aS'Novell NetWare 6 SP2'
p2294
aS'Novell NetWare 6.0 SP3'
p2295
aS'Novell Netware 6.0 SP4'
p2296
aS'Novell Netware 6.5 SP2'
p2297
asS'Xyplex | MAXserver || terminal server'
p2298
(lp2299
S'Xyplex 1600 terminal server running MAXserver V6.0.2 firmware'
p2300
aS'Xyplex Maxserver 1600 Terminal Server'
p2301
asS'Cisco | IOS | 11.X | router'
p2302
(lp2303
S'Cisco 2501/2504/4500 router with IOS Version 10.3(15) - 11.1(20)'
p2304
aS'Cisco 1600/3640/7513 Router (IOS 11.2(14)P)'
p2305
ag1639
aS'Cisco 4500 router running IOS 11.2(2)'
p2306
aS'Cisco 4500-M router running IOS 11.3(6) IP Plus'
p2307
aS'Cisco 7206 router (IOS 11.1(17)'
p2308
aS'Cisco 7206 running IOS 11.1(24)'
p2309
ag299
aS'Cisco IOS v11.14(CA)/12.0.2aT1/v12.0.3T'
p2310
ag1660
ag1661
asS'CNT | embedded || storage-misc'
p2311
(lp2312
S'CNT UltraNet EDGE (SAN Router) V. 1.4.1.2'
p2313
asS'Microsoft | Windows | 95/98/ME | general purpose'
p2314
(lp2315
g5
aS'Microsoft Windows 95 4.00.950'
p2316
aS'Microsoft Windows 95 4.00.950B'
p2317
aS'Microsoft Windows 95 4.00.950B (IE 5 5.00 2314.1003)'
p2318
ag427
aS'Microsoft Windows 98'
p2319
aS'Microsoft Windows 98 4.10.1998'
p2320
aS'Microsoft Windows 98 or 98SE'
p2321
aS'Microsoft Windows 98 SP1'
p2322
aS'Microsoft Windows 98 SP2'
p2323
aS'Microsoft Windows 98SE'
p2324
aS'Microsoft Windows 98SE + IE5.5sp1'
p2325
aS'Microsoft Windows 98SE 4.10.2222'
p2326
aS'Microsoft Windows 98SE SP1'
p2327
aS'Microsoft Windows 98SE with security patch A'
p2328
aS'Microsoft Windows Millennium Edition (Me)'
p2329
aS'Microsoft Windows Millennium Edition (Me), Windows 2000 Professional or Advanced Server, or Windows XP'
p2330
aS'Microsoft Windows NT 3.51 SP5, NT 4.0 or 95/98/98SE'
p2331
aS'Microsoft Windows Millennium Edition (Me), Windows 2000, or Windows XP'
p2332
ag971
asS'Symantec | embedded || firewall'
p2333
(lp2334
S'Symantec Gateway Security 5310 Firewall'
p2335
aS'Symantec Gateway Security 5420 firewall'
p2336
asS'Checkpoint | Windows | NT/2K/XP | firewall'
p2337
(lp2338
S'Check Point FireWall-1 4.0 SP-5 (IPSO build)'
p2339
aS'Checkpoint Firewall-1 on Windows NT 4.0 Server SP4-SP5'
p2340
aS'Checkpoint SecurePlatform NG FP3'
p2341
asS'Cobalt | Linux | 2.0.X | general purpose'
p2342
(lp2343
S'Cobalt Linux 4.0 (Fargo) Kernel 2.0.34C52_SK on MIPS or TEAMInternet Series 100 WebSense'
p2344
asS'Fortinet | embedded || firewall'
p2345
(lp2346
S'Fortinet firewall Fortigate 50A (FortiOS V2.80)'
p2347
aS'Fortinet firewall Fortigate 60'
p2348
asS'Lantronix | embedded || terminal server'
p2349
(lp2350
g288
aS'Lantronix Consoleserver 800'
p2351
aS'Lantronix ETS16 terminal server Version V3.4/5(961028)'
p2352
aS'Lantronix ETS16P terminal server Version V3.5/2(970721)'
p2353
aS'Lantronix SCS1600 secure console server version V1.0/2(010620)'
p2354
asS'MiraPoint | embedded || general purpose'
p2355
(lp2356
S'Mirapoint messaging server M1000 (OS v 1.0.0)'
p2357
aS'MiraPoint messaging server v3.1'
p2358
asS'DEC | DIGITAL UNIX | 5.X | general purpose'
p2359
(lp2360
S'DEC OSF1 (AKA Compaq/DIGITAL Tru64 UNIX) Version 5.0.0'
p2361
aS'OSF/1 (AKA Compaq/DIGITAL Tru64 UNIX) 5.60'
p2362
asS'US Robotics | embedded || terminal server'
p2363
(lp2364
S'US Robotics Total Control NETServer Card'
p2365
asS'Intergraph | CLiX || general purpose'
p2366
(lp2367
S'Intergraph CLiX R3.1 Vr.7.6.20 6480'
p2368
aS'Intergraph Workstation (2000 Series) running CLiX R3.1'
p2369
asS'Borderware | embedded || firewall'
p2370
(lp2371
S'Borderware 5.0 Firewall'
p2372
aS'Borderware 5.2 firewall'
p2373
aS'Borderware 6.0.2 firewall'
p2374
asS'IBM | OS/400 | V5 | general purpose'
p2375
(lp2376
S'IBM AS/400 running OS/400 5.1'
p2377
aS'IBM OS/400 V5R1 - V5R2'
p2378
aS'IBM OS/400 V5R1M0'
p2379
aS'IBM OS/400 V5R2M0'
p2380
aS'OS/400 V5R2M0 or V5R3 or V5R3M0'
p2381
asS'WYSE | WYSE OS || terminal server'
p2382
(lp2383
S'Winterm WYSE System Version 4.2.077'
p2384
aS'WYSE Winterm terminal server'
p2385
asS'SCO | SCO UNIX || general purpose'
p2386
(lp2387
S'SCO Open Desktop 2.0'
p2388
aS'SCO UNIX release 3.2'
p2389
asS'Lantronix | Punix || terminal server'
p2390
(lp2391
S'Lantronix ETS16 terminal server'
p2392
asS'Cisco | IOS | 10.X | router'
p2393
(lp2394
g2304
asS'Axent | Windows | NT/2K/XP | firewall'
p2395
(lp2396
S'Axent Raptor Firewall running on Windows NT'
p2397
asS'Thomson | embedded || broadband router'
p2398
(lp2399
g671
aS'Thomson Speed Touch 500 Series or 610i *DSL modem'
p2400
aS'Thomson THG 520 Cable Modem'
p2401
asS'Aironet | embedded || bridge'
p2402
(lp2403
S'Aironet 630-2400 V3.3P Wireless LAN bridge'
p2404
aS'Aironet Wireless Bridge running firmware V5.0J'
p2405
asS'OpenBSD | OpenBSD | 3.X | general purpose'
p2406
(lp2407
S'OpenBSD 3.0 or 3.3'
p2408
aS'OpenBSD 3.0 SPARC with pf "scrub in all"'
p2409
aS'OpenBSD 3.0-STABLE (x86)'
p2410
aS'OpenBSD 3.1 (x86)'
p2411
aS'OpenBSD 3.1 on an Alpha'
p2412
aS'OpenBSD 3.2 (x86)'
p2413
aS'OpenBSD 3.2 with pf scrub and no-df'
p2414
aS'OpenBSD 3.3'
p2415
aS'OpenBSD 3.3 x86 with pf "scrub in all"'
p2416
aS'OpenBSD 3.4'
p2417
aS'OpenBSD 3.4 (X86)'
p2418
aS'OpenBSD 3.4 x86'
p2419
aS'OpenBSD 3.4 x86 with pf "scrub in all"'
p2420
aS'OpenBSD 3.4-BETA'
p2421
aS'OpenBSD 3.5 - 3.9'
p2422
aS'OpenBSD 3.5 or 3.6'
p2423
aS'OpenBSD 3.6'
p2424
aS'OpenBSD 3.6 (i386)'
p2425
aS'OpenBSD 3.6 x86 with pf "scrub in all"'
p2426
aS'OpenBSD 3.7'
p2427
asS'm0n0wall | FreeBSD | 4.X | firewall'
p2428
(lp2429
S'M0n0wall 1.2b2 - 1.2b8 FreeBSD 4.1 based firewall'
p2430
asS'Panasonic | embedded || webcam'
p2431
(lp2432
S'Panasonic WJ-NT104 Network video device'
p2433
ag605
asS'Auspex | AuspexOS || fileserver'
p2434
(lp2435
S'Auspex Fileserver (AuspexOS 1.9.1/SunOS 4.1.4)'
p2436
asS'HP | HP-UX | 7.X | general purpose'
p2437
(lp2438
S'HP-UX 7.0'
p2439
asS'Avocent | embedded || terminal server'
p2440
(lp2441
S'Avocent CPS 1610 serial port server'
p2442
asS'Dell | embedded || switch'
p2443
(lp2444
S'Dell PowerConnect Switch 3324 or 3348'
p2445
aS'Dell PowerConnect Switch 5324'
p2446
aS'Dell PowerConnect Switch running SW V.1.0.0.52'
p2447
asS'QMS | embedded || printer'
p2448
(lp2449
S'QMS Magicolor 2200 DeskLaser printer'
p2450
asS'Conexant | embedded || broadband router'
p2451
(lp2452
S'Conexant ADSL Router'
p2453
aS'Sphairon Turbolink ADSL Modem/Router (AR800C2-B01B)'
p2454
asS'Sipura | embedded || VoIP adapter'
p2455
(lp2456
S'Sipura SPA-841/1000/2000/3000 POTS<->VoIP gateway'
p2457
asS'Vanguard | embedded || router'
p2458
(lp2459
S'MOTOROLA VANGUARD 320 IP router running OS version 5.4'
p2460
aS'Motorola Vanguard 320 multi-protocol network access device V5.5 - 5.6'
p2461
asS'Acorn | RISC OS || general purpose'
p2462
(lp2463
S'Acorn RISC OS 3.60 (Acorn TCP/IP Stack 4.07)'
p2464
aS'Acorn RISC OS 3.70 using AcornNet TCP/IP stack or RISC OS 4 (Pace, RISCOS Ltd)'
p2465
asS'Cisco | embedded || load balancer'
p2466
(lp2467
S'Cisco CSS 11501 Content Services Switch'
p2468
aS'Cisco Local Director 420 version 2.1.1'
p2469
aS'Cisco Localdirector load balancer'
p2470
aS'Cisco LocalDirector load balancer'
p2471
ag554
asS'Barix | embedded || media device'
p2472
(lp2473
S'Barix Exstreamer network MP3 player'
p2474
asS'NSG | embedded || router'
p2475
(lp2476
S'NSG-300/500 series router running Version 7.6.x'
p2477
asS'Madge | embedded || switch'
p2478
(lp2479
S'Madge Smart Ringswitch'
p2480
asS'Compaq | embedded || remote management'
p2481
(lp2482
S'Compaq Inside Management Board'
p2483
aS'Compaq Integrated Lights Out remote configuration Board'
p2484
aS'Compaq ProLiant DL580 Integrated Lights-Out remote configuration board V1.06'
p2485
ag1470
asS'F5 Labs | embedded || load balancer'
p2486
(lp2487
S'F5 Labs BIG-IP Load balancer Kernel 4.1.1PTF-03 (x86)'
p2488
aS'F5 Labs BIG-IP load balancer kernel 4.2PTF-05a (x86)'
p2489
asS'BBIagent | Linux | 2.4.X | software router'
p2490
(lp2491
S'BBIagent v1.8.1 software router'
p2492
asS'Xerox | embedded || printer'
p2493
(lp2494
S'Dell Laser Printer 5100cn'
p2495
aS'Xerox 8830 Plotter'
p2496
aS'Xerox Document Centre 440 w/ CentreWare Internet Services'
p2497
aS'Xerox Document Centre ColorSeries 50'
p2498
aS'Xerox DocuPrint C55'
p2499
aS'Xerox Docuprint N2125 network printer'
p2500
aS'Xerox DocuPrint N24/N32/N40 Network Laser Printer'
p2501
aS'Xerox DocuPrint N40'
p2502
as.